Archive member included to satisfy reference by file (symbol)

g:/rt-threadstudio/platform/env_released/env/tools/gnu_gcc/arm_gcc/mingw/bin/../lib/gcc/arm-none-eabi/10.3.1/../../../../arm-none-eabi/lib/thumb/v7-m/nofp\libc.a(lib_a-atoi.o)
                              build\kernel\components\drivers\misc\pin.o (atoi)
g:/rt-threadstudio/platform/env_released/env/tools/gnu_gcc/arm_gcc/mingw/bin/../lib/gcc/arm-none-eabi/10.3.1/../../../../arm-none-eabi/lib/thumb/v7-m/nofp\libc.a(lib_a-ctype_.o)
                              build\kernel\components\drivers\misc\pin.o (_ctype_)
g:/rt-threadstudio/platform/env_released/env/tools/gnu_gcc/arm_gcc/mingw/bin/../lib/gcc/arm-none-eabi/10.3.1/../../../../arm-none-eabi/lib/thumb/v7-m/nofp\libc.a(lib_a-exit.o)
                              g:/rt-threadstudio/platform/env_released/env/tools/gnu_gcc/arm_gcc/mingw/bin/../lib/gcc/arm-none-eabi/10.3.1/../../../../arm-none-eabi/lib/thumb/v7-m/nofp/crt0.o (exit)
g:/rt-threadstudio/platform/env_released/env/tools/gnu_gcc/arm_gcc/mingw/bin/../lib/gcc/arm-none-eabi/10.3.1/../../../../arm-none-eabi/lib/thumb/v7-m/nofp\libc.a(lib_a-impure.o)
                              g:/rt-threadstudio/platform/env_released/env/tools/gnu_gcc/arm_gcc/mingw/bin/../lib/gcc/arm-none-eabi/10.3.1/../../../../arm-none-eabi/lib/thumb/v7-m/nofp\libc.a(lib_a-exit.o) (_global_impure_ptr)
g:/rt-threadstudio/platform/env_released/env/tools/gnu_gcc/arm_gcc/mingw/bin/../lib/gcc/arm-none-eabi/10.3.1/../../../../arm-none-eabi/lib/thumb/v7-m/nofp\libc.a(lib_a-malloc.o)
                              build\kernel\components\libc\compilers\common\cstring.o (malloc)
g:/rt-threadstudio/platform/env_released/env/tools/gnu_gcc/arm_gcc/mingw/bin/../lib/gcc/arm-none-eabi/10.3.1/../../../../arm-none-eabi/lib/thumb/v7-m/nofp\libc.a(lib_a-memcmp.o)
                              build\kernel\components\finsh\shell.o (memcmp)
g:/rt-threadstudio/platform/env_released/env/tools/gnu_gcc/arm_gcc/mingw/bin/../lib/gcc/arm-none-eabi/10.3.1/../../../../arm-none-eabi/lib/thumb/v7-m/nofp\libc.a(lib_a-memcpy.o)
                              build\kernel\components\finsh\msh.o (memcpy)
g:/rt-threadstudio/platform/env_released/env/tools/gnu_gcc/arm_gcc/mingw/bin/../lib/gcc/arm-none-eabi/10.3.1/../../../../arm-none-eabi/lib/thumb/v7-m/nofp\libc.a(lib_a-memset.o)
                              g:/rt-threadstudio/platform/env_released/env/tools/gnu_gcc/arm_gcc/mingw/bin/../lib/gcc/arm-none-eabi/10.3.1/../../../../arm-none-eabi/lib/thumb/v7-m/nofp/crt0.o (memset)
g:/rt-threadstudio/platform/env_released/env/tools/gnu_gcc/arm_gcc/mingw/bin/../lib/gcc/arm-none-eabi/10.3.1/../../../../arm-none-eabi/lib/thumb/v7-m/nofp\libc.a(lib_a-strchr.o)
                              build\kernel\components\libc\compilers\common\cstring.o (strchr)
g:/rt-threadstudio/platform/env_released/env/tools/gnu_gcc/arm_gcc/mingw/bin/../lib/gcc/arm-none-eabi/10.3.1/../../../../arm-none-eabi/lib/thumb/v7-m/nofp\libc.a(lib_a-strcmp.o)
                              build\kernel\components\dfs\src\dfs_fs.o (strcmp)
g:/rt-threadstudio/platform/env_released/env/tools/gnu_gcc/arm_gcc/mingw/bin/../lib/gcc/arm-none-eabi/10.3.1/../../../../arm-none-eabi/lib/thumb/v7-m/nofp\libc.a(lib_a-strcpy.o)
                              build\kernel\components\finsh\shell.o (strcpy)
g:/rt-threadstudio/platform/env_released/env/tools/gnu_gcc/arm_gcc/mingw/bin/../lib/gcc/arm-none-eabi/10.3.1/../../../../arm-none-eabi/lib/thumb/v7-m/nofp\libc.a(lib_a-strlen-stub.o)
                              build\kernel\src\kservice.o (strlen)
g:/rt-threadstudio/platform/env_released/env/tools/gnu_gcc/arm_gcc/mingw/bin/../lib/gcc/arm-none-eabi/10.3.1/../../../../arm-none-eabi/lib/thumb/v7-m/nofp\libc.a(lib_a-strncat.o)
                              build\kernel\components\drivers\misc\pin.o (strncat)
g:/rt-threadstudio/platform/env_released/env/tools/gnu_gcc/arm_gcc/mingw/bin/../lib/gcc/arm-none-eabi/10.3.1/../../../../arm-none-eabi/lib/thumb/v7-m/nofp\libc.a(lib_a-strncmp.o)
                              build\kernel\src\object.o (strncmp)
g:/rt-threadstudio/platform/env_released/env/tools/gnu_gcc/arm_gcc/mingw/bin/../lib/gcc/arm-none-eabi/10.3.1/../../../../arm-none-eabi/lib/thumb/v7-m/nofp\libc.a(lib_a-strncpy.o)
                              build\kernel\src\object.o (strncpy)
g:/rt-threadstudio/platform/env_released/env/tools/gnu_gcc/arm_gcc/mingw/bin/../lib/gcc/arm-none-eabi/10.3.1/../../../../arm-none-eabi/lib/thumb/v7-m/nofp\libc.a(lib_a-strrchr.o)
                              build\kernel\components\dfs\src\dfs_file.o (strrchr)
g:/rt-threadstudio/platform/env_released/env/tools/gnu_gcc/arm_gcc/mingw/bin/../lib/gcc/arm-none-eabi/10.3.1/../../../../arm-none-eabi/lib/thumb/v7-m/nofp\libc.a(lib_a-strstr.o)
                              build\kernel\components\finsh\msh_file.o (strstr)
g:/rt-threadstudio/platform/env_released/env/tools/gnu_gcc/arm_gcc/mingw/bin/../lib/gcc/arm-none-eabi/10.3.1/../../../../arm-none-eabi/lib/thumb/v7-m/nofp\libc.a(lib_a-strtol.o)
                              g:/rt-threadstudio/platform/env_released/env/tools/gnu_gcc/arm_gcc/mingw/bin/../lib/gcc/arm-none-eabi/10.3.1/../../../../arm-none-eabi/lib/thumb/v7-m/nofp\libc.a(lib_a-atoi.o) (_strtol_r)
g:/rt-threadstudio/platform/env_released/env/tools/gnu_gcc/arm_gcc/mingw/bin/../lib/gcc/arm-none-eabi/10.3.1/../../../../arm-none-eabi/lib/thumb/v7-m/nofp\libc.a(lib_a-__call_atexit.o)
                              g:/rt-threadstudio/platform/env_released/env/tools/gnu_gcc/arm_gcc/mingw/bin/../lib/gcc/arm-none-eabi/10.3.1/../../../../arm-none-eabi/lib/thumb/v7-m/nofp\libc.a(lib_a-exit.o) (__call_exitprocs)
g:/rt-threadstudio/platform/env_released/env/tools/gnu_gcc/arm_gcc/mingw/bin/../lib/gcc/arm-none-eabi/10.3.1/../../../../arm-none-eabi/lib/thumb/v7-m/nofp\libc.a(lib_a-atexit.o)
                              g:/rt-threadstudio/platform/env_released/env/tools/gnu_gcc/arm_gcc/mingw/bin/../lib/gcc/arm-none-eabi/10.3.1/../../../../arm-none-eabi/lib/thumb/v7-m/nofp\libc.a(lib_a-__call_atexit.o) (atexit)
g:/rt-threadstudio/platform/env_released/env/tools/gnu_gcc/arm_gcc/mingw/bin/../lib/gcc/arm-none-eabi/10.3.1/../../../../arm-none-eabi/lib/thumb/v7-m/nofp\libc.a(lib_a-fini.o)
                              g:/rt-threadstudio/platform/env_released/env/tools/gnu_gcc/arm_gcc/mingw/bin/../lib/gcc/arm-none-eabi/10.3.1/../../../../arm-none-eabi/lib/thumb/v7-m/nofp\libc.a(lib_a-__call_atexit.o) (__libc_fini_array)
g:/rt-threadstudio/platform/env_released/env/tools/gnu_gcc/arm_gcc/mingw/bin/../lib/gcc/arm-none-eabi/10.3.1/../../../../arm-none-eabi/lib/thumb/v7-m/nofp\libc.a(lib_a-lock.o)
                              g:/rt-threadstudio/platform/env_released/env/tools/gnu_gcc/arm_gcc/mingw/bin/../lib/gcc/arm-none-eabi/10.3.1/../../../../arm-none-eabi/lib/thumb/v7-m/nofp\libc.a(lib_a-__call_atexit.o) (__retarget_lock_acquire_recursive)
g:/rt-threadstudio/platform/env_released/env/tools/gnu_gcc/arm_gcc/mingw/bin/../lib/gcc/arm-none-eabi/10.3.1/../../../../arm-none-eabi/lib/thumb/v7-m/nofp\libc.a(lib_a-__atexit.o)
                              g:/rt-threadstudio/platform/env_released/env/tools/gnu_gcc/arm_gcc/mingw/bin/../lib/gcc/arm-none-eabi/10.3.1/../../../../arm-none-eabi/lib/thumb/v7-m/nofp\libc.a(lib_a-atexit.o) (__register_exitproc)
g:/rt-threadstudio/platform/env_released/env/tools/gnu_gcc/arm_gcc/mingw/bin/../lib/gcc/arm-none-eabi/10.3.1/thumb/v7-m/nofp\libgcc.a(_arm_addsubdf3.o)
                              build\kernel\components\libc\compilers\common\ctime.o (__aeabi_l2d)
g:/rt-threadstudio/platform/env_released/env/tools/gnu_gcc/arm_gcc/mingw/bin/../lib/gcc/arm-none-eabi/10.3.1/thumb/v7-m/nofp\libgcc.a(_aeabi_ldivmod.o)
                              build\kernel\components\libc\compilers\common\ctime.o (__aeabi_ldivmod)
g:/rt-threadstudio/platform/env_released/env/tools/gnu_gcc/arm_gcc/mingw/bin/../lib/gcc/arm-none-eabi/10.3.1/thumb/v7-m/nofp\libgcc.a(_udivmoddi4.o)
                              g:/rt-threadstudio/platform/env_released/env/tools/gnu_gcc/arm_gcc/mingw/bin/../lib/gcc/arm-none-eabi/10.3.1/thumb/v7-m/nofp\libgcc.a(_aeabi_ldivmod.o) (__udivmoddi4)
g:/rt-threadstudio/platform/env_released/env/tools/gnu_gcc/arm_gcc/mingw/bin/../lib/gcc/arm-none-eabi/10.3.1/thumb/v7-m/nofp\libgcc.a(_dvmd_tls.o)
                              g:/rt-threadstudio/platform/env_released/env/tools/gnu_gcc/arm_gcc/mingw/bin/../lib/gcc/arm-none-eabi/10.3.1/thumb/v7-m/nofp\libgcc.a(_aeabi_ldivmod.o) (__aeabi_ldiv0)

Discarded input sections

 .text          0x00000000        0x0 g:/rt-threadstudio/platform/env_released/env/tools/gnu_gcc/arm_gcc/mingw/bin/../lib/gcc/arm-none-eabi/10.3.1/thumb/v7-m/nofp/crti.o
 .data          0x00000000        0x0 g:/rt-threadstudio/platform/env_released/env/tools/gnu_gcc/arm_gcc/mingw/bin/../lib/gcc/arm-none-eabi/10.3.1/thumb/v7-m/nofp/crti.o
 .bss           0x00000000        0x0 g:/rt-threadstudio/platform/env_released/env/tools/gnu_gcc/arm_gcc/mingw/bin/../lib/gcc/arm-none-eabi/10.3.1/thumb/v7-m/nofp/crti.o
 .data          0x00000000        0x4 g:/rt-threadstudio/platform/env_released/env/tools/gnu_gcc/arm_gcc/mingw/bin/../lib/gcc/arm-none-eabi/10.3.1/thumb/v7-m/nofp/crtbegin.o
 .rodata        0x00000000       0x24 g:/rt-threadstudio/platform/env_released/env/tools/gnu_gcc/arm_gcc/mingw/bin/../lib/gcc/arm-none-eabi/10.3.1/thumb/v7-m/nofp/crtbegin.o
 .fini_array    0x00000000        0x4 g:/rt-threadstudio/platform/env_released/env/tools/gnu_gcc/arm_gcc/mingw/bin/../lib/gcc/arm-none-eabi/10.3.1/thumb/v7-m/nofp/crtbegin.o
 .text          0x00000000       0x7c g:/rt-threadstudio/platform/env_released/env/tools/gnu_gcc/arm_gcc/mingw/bin/../lib/gcc/arm-none-eabi/10.3.1/../../../../arm-none-eabi/lib/thumb/v7-m/nofp/crt0.o
 .data          0x00000000        0x0 g:/rt-threadstudio/platform/env_released/env/tools/gnu_gcc/arm_gcc/mingw/bin/../lib/gcc/arm-none-eabi/10.3.1/../../../../arm-none-eabi/lib/thumb/v7-m/nofp/crt0.o
 .bss           0x00000000        0x0 g:/rt-threadstudio/platform/env_released/env/tools/gnu_gcc/arm_gcc/mingw/bin/../lib/gcc/arm-none-eabi/10.3.1/../../../../arm-none-eabi/lib/thumb/v7-m/nofp/crt0.o
 .ARM.extab     0x00000000        0x0 g:/rt-threadstudio/platform/env_released/env/tools/gnu_gcc/arm_gcc/mingw/bin/../lib/gcc/arm-none-eabi/10.3.1/../../../../arm-none-eabi/lib/thumb/v7-m/nofp/crt0.o
 .ARM.exidx     0x00000000       0x10 g:/rt-threadstudio/platform/env_released/env/tools/gnu_gcc/arm_gcc/mingw/bin/../lib/gcc/arm-none-eabi/10.3.1/../../../../arm-none-eabi/lib/thumb/v7-m/nofp/crt0.o
 .ARM.attributes
                0x00000000       0x1b g:/rt-threadstudio/platform/env_released/env/tools/gnu_gcc/arm_gcc/mingw/bin/../lib/gcc/arm-none-eabi/10.3.1/../../../../arm-none-eabi/lib/thumb/v7-m/nofp/crt0.o
 .text          0x00000000        0x0 build\applications\main.o
 .data          0x00000000        0x0 build\applications\main.o
 .bss           0x00000000        0x0 build\applications\main.o
 .text          0x00000000        0x0 build\board\ports\user_key.o
 .data          0x00000000        0x0 build\board\ports\user_key.o
 .bss           0x00000000        0x0 build\board\ports\user_key.o
 .text          0x00000000       0x14 libraries\STM32F1xx_HAL\CMSIS\Device\ST\STM32F1xx\Source\Templates\gcc\startup_stm32f103xb.o
 .data          0x00000000        0x0 libraries\STM32F1xx_HAL\CMSIS\Device\ST\STM32F1xx\Source\Templates\gcc\startup_stm32f103xb.o
 .bss           0x00000000        0x0 libraries\STM32F1xx_HAL\CMSIS\Device\ST\STM32F1xx\Source\Templates\gcc\startup_stm32f103xb.o
 .text          0x00000000        0x0 build\board\CubeMX_Config\Src\stm32f1xx_hal_msp.o
 .data          0x00000000        0x0 build\board\CubeMX_Config\Src\stm32f1xx_hal_msp.o
 .bss           0x00000000        0x0 build\board\CubeMX_Config\Src\stm32f1xx_hal_msp.o
 .text.HAL_RTC_MspInit
                0x00000000       0x40 build\board\CubeMX_Config\Src\stm32f1xx_hal_msp.o
 .text.HAL_RTC_MspDeInit
                0x00000000       0x1c build\board\CubeMX_Config\Src\stm32f1xx_hal_msp.o
 .text.HAL_SPI_MspInit
                0x00000000       0x84 build\board\CubeMX_Config\Src\stm32f1xx_hal_msp.o
 .text.HAL_SPI_MspDeInit
                0x00000000       0x28 build\board\CubeMX_Config\Src\stm32f1xx_hal_msp.o
 .text          0x00000000        0x0 build\board\board.o
 .data          0x00000000        0x0 build\board\board.o
 .bss           0x00000000        0x0 build\board\board.o
 .text          0x00000000        0x0 build\kernel\src\mem.o
 .data          0x00000000        0x0 build\kernel\src\mem.o
 .bss           0x00000000        0x0 build\kernel\src\mem.o
 .text.rt_smem_detach
                0x00000000       0x60 build\kernel\src\mem.o
 .rodata.__FUNCTION__.4
                0x00000000        0xf build\kernel\src\mem.o
 .text          0x00000000        0x0 build\kernel\src\timer.o
 .data          0x00000000        0x0 build\kernel\src\timer.o
 .bss           0x00000000        0x0 build\kernel\src\timer.o
 .text.rt_timer_enter_sethook
                0x00000000        0xc build\kernel\src\timer.o
 .text.rt_timer_exit_sethook
                0x00000000        0xc build\kernel\src\timer.o
 .text.rt_timer_create
                0x00000000       0x6c build\kernel\src\timer.o
 .rodata.rt_timer_delete.str1.4
                0x00000000       0x36 build\kernel\src\timer.o
 .text.rt_timer_delete
                0x00000000       0x7c build\kernel\src\timer.o
 .text.rt_timer_next_timeout_tick
                0x00000000       0x28 build\kernel\src\timer.o
 .rodata.__FUNCTION__.4
                0x00000000       0x10 build\kernel\src\timer.o
 .rodata.__FUNCTION__.5
                0x00000000       0x10 build\kernel\src\timer.o
 .text          0x00000000        0x0 build\kernel\src\irq.o
 .data          0x00000000        0x0 build\kernel\src\irq.o
 .bss           0x00000000        0x0 build\kernel\src\irq.o
 .text.rt_interrupt_enter_sethook
                0x00000000        0xc build\kernel\src\irq.o
 .text.rt_interrupt_leave_sethook
                0x00000000        0xc build\kernel\src\irq.o
 .text          0x00000000        0x0 build\kernel\src\components.o
 .data          0x00000000        0x0 build\kernel\src\components.o
 .bss           0x00000000        0x0 build\kernel\src\components.o
 .text.rt_components_init
                0x00000000       0x20 build\kernel\src\components.o
 .text.rtthread_startup
                0x00000000       0x2c build\kernel\src\components.o
 .text          0x00000000        0x0 build\kernel\src\mempool.o
 .data          0x00000000        0x0 build\kernel\src\mempool.o
 .bss           0x00000000        0x0 build\kernel\src\mempool.o
 .text.rt_mp_alloc_sethook
                0x00000000        0xc build\kernel\src\mempool.o
 .text.rt_mp_free_sethook
                0x00000000        0xc build\kernel\src\mempool.o
 .rodata.rt_mp_init.str1.4
                0x00000000       0x4f build\kernel\src\mempool.o
 .text.rt_mp_init
                0x00000000       0xd8 build\kernel\src\mempool.o
 .rodata.rt_mp_detach.str1.4
                0x00000000       0x63 build\kernel\src\mempool.o
 .text.rt_mp_detach
                0x00000000       0x80 build\kernel\src\mempool.o
 .rodata.rt_mp_create.str1.4
                0x00000000       0x4e build\kernel\src\mempool.o
 .text.rt_mp_create
                0x00000000       0xe0 build\kernel\src\mempool.o
 .rodata.rt_mp_delete.str1.4
                0x00000000       0x33 build\kernel\src\mempool.o
 .text.rt_mp_delete
                0x00000000       0xc4 build\kernel\src\mempool.o
 .rodata.rt_mp_alloc.str1.4
                0x00000000       0x15 build\kernel\src\mempool.o
 .text.rt_mp_alloc
                0x00000000      0x148 build\kernel\src\mempool.o
 .text.rt_mp_free
                0x00000000       0x60 build\kernel\src\mempool.o
 .bss.rt_mp_alloc_hook
                0x00000000        0x4 build\kernel\src\mempool.o
 .bss.rt_mp_free_hook
                0x00000000        0x4 build\kernel\src\mempool.o
 .rodata.__FUNCTION__.0
                0x00000000        0xc build\kernel\src\mempool.o
 .rodata.__FUNCTION__.1
                0x00000000        0xd build\kernel\src\mempool.o
 .rodata.__FUNCTION__.2
                0x00000000        0xd build\kernel\src\mempool.o
 .rodata.__FUNCTION__.3
                0x00000000        0xd build\kernel\src\mempool.o
 .rodata.__FUNCTION__.4
                0x00000000        0xb build\kernel\src\mempool.o
 .debug_info    0x00000000     0x11d0 build\kernel\src\mempool.o
 .debug_abbrev  0x00000000      0x31e build\kernel\src\mempool.o
 .debug_loc     0x00000000      0x9da build\kernel\src\mempool.o
 .debug_aranges
                0x00000000       0x58 build\kernel\src\mempool.o
 .debug_ranges  0x00000000      0x140 build\kernel\src\mempool.o
 .debug_line    0x00000000      0xa56 build\kernel\src\mempool.o
 .debug_str     0x00000000      0x779 build\kernel\src\mempool.o
 .comment       0x00000000       0x4a build\kernel\src\mempool.o
 .debug_frame   0x00000000      0x11c build\kernel\src\mempool.o
 .ARM.attributes
                0x00000000       0x2d build\kernel\src\mempool.o
 .text          0x00000000        0x0 build\kernel\src\thread.o
 .data          0x00000000        0x0 build\kernel\src\thread.o
 .bss           0x00000000        0x0 build\kernel\src\thread.o
 .text.rt_thread_suspend_sethook
                0x00000000        0xc build\kernel\src\thread.o
 .text.rt_thread_resume_sethook
                0x00000000        0xc build\kernel\src\thread.o
 .text.rt_thread_inited_sethook
                0x00000000        0xc build\kernel\src\thread.o
 .text.rt_thread_yield
                0x00000000       0x30 build\kernel\src\thread.o
 .rodata.rt_thread_delay_until.str1.4
                0x00000000       0x10 build\kernel\src\thread.o
 .text.rt_thread_delay_until
                0x00000000       0xcc build\kernel\src\thread.o
 .text.rt_thread_find
                0x00000000        0x8 build\kernel\src\thread.o
 .rodata.__FUNCTION__.3
                0x00000000       0x16 build\kernel\src\thread.o
 .text          0x00000000        0x0 build\kernel\src\clock.o
 .data          0x00000000        0x0 build\kernel\src\clock.o
 .bss           0x00000000        0x0 build\kernel\src\clock.o
 .text.rt_tick_sethook
                0x00000000        0xc build\kernel\src\clock.o
 .text.rt_tick_set
                0x00000000       0x18 build\kernel\src\clock.o
 .text.rt_tick_get_millisecond
                0x00000000        0xc build\kernel\src\clock.o
 .text          0x00000000        0x0 build\kernel\src\ipc.o
 .data          0x00000000        0x0 build\kernel\src\ipc.o
 .bss           0x00000000        0x0 build\kernel\src\ipc.o
 .text.rt_sem_detach
                0x00000000       0x84 build\kernel\src\ipc.o
 .text.rt_sem_create
                0x00000000       0x80 build\kernel\src\ipc.o
 .rodata.rt_sem_delete.str1.4
                0x00000000       0x3b build\kernel\src\ipc.o
 .text.rt_sem_delete
                0x00000000       0xc4 build\kernel\src\ipc.o
 .text.rt_sem_trytake
                0x00000000        0x8 build\kernel\src\ipc.o
 .text.rt_sem_control
                0x00000000       0x8c build\kernel\src\ipc.o
 .text.rt_mutex_detach
                0x00000000       0x84 build\kernel\src\ipc.o
 .text.rt_mutex_create
                0x00000000       0x5c build\kernel\src\ipc.o
 .rodata.rt_mutex_delete.str1.4
                0x00000000       0x3d build\kernel\src\ipc.o
 .text.rt_mutex_delete
                0x00000000       0xc4 build\kernel\src\ipc.o
 .text.rt_mutex_trytake
                0x00000000        0x8 build\kernel\src\ipc.o
 .text.rt_mutex_control
                0x00000000       0x3c build\kernel\src\ipc.o
 .rodata.rt_event_init.str1.4
                0x00000000       0x11 build\kernel\src\ipc.o
 .text.rt_event_init
                0x00000000       0x50 build\kernel\src\ipc.o
 .rodata.rt_event_detach.str1.4
                0x00000000       0x75 build\kernel\src\ipc.o
 .text.rt_event_detach
                0x00000000       0x84 build\kernel\src\ipc.o
 .text.rt_event_create
                0x00000000       0x68 build\kernel\src\ipc.o
 .rodata.rt_event_delete.str1.4
                0x00000000       0x3d build\kernel\src\ipc.o
 .text.rt_event_delete
                0x00000000       0xc4 build\kernel\src\ipc.o
 .text.rt_event_send
                0x00000000       0xfc build\kernel\src\ipc.o
 .text.rt_event_recv
                0x00000000      0x234 build\kernel\src\ipc.o
 .text.rt_event_control
                0x00000000       0x8c build\kernel\src\ipc.o
 .rodata.rt_mb_init.str1.4
                0x00000000        0xe build\kernel\src\ipc.o
 .text.rt_mb_init
                0x00000000       0x6c build\kernel\src\ipc.o
 .rodata.rt_mb_detach.str1.4
                0x00000000       0x72 build\kernel\src\ipc.o
 .text.rt_mb_detach
                0x00000000       0xb0 build\kernel\src\ipc.o
 .text.rt_mb_create
                0x00000000       0x94 build\kernel\src\ipc.o
 .rodata.rt_mb_delete.str1.4
                0x00000000       0x3a build\kernel\src\ipc.o
 .text.rt_mb_delete
                0x00000000       0xf8 build\kernel\src\ipc.o
 .text.rt_mb_send_wait
                0x00000000      0x250 build\kernel\src\ipc.o
 .text.rt_mb_send
                0x00000000        0x8 build\kernel\src\ipc.o
 .text.rt_mb_urgent
                0x00000000       0xa4 build\kernel\src\ipc.o
 .text.rt_mb_recv
                0x00000000      0x26c build\kernel\src\ipc.o
 .text.rt_mb_control
                0x00000000       0xbc build\kernel\src\ipc.o
 .rodata.rt_mq_init.str1.4
                0x00000000        0xe build\kernel\src\ipc.o
 .text.rt_mq_init
                0x00000000       0xa8 build\kernel\src\ipc.o
 .rodata.rt_mq_detach.str1.4
                0x00000000       0x76 build\kernel\src\ipc.o
 .text.rt_mq_detach
                0x00000000       0xb0 build\kernel\src\ipc.o
 .text.rt_mq_create
                0x00000000       0xd4 build\kernel\src\ipc.o
 .rodata.rt_mq_delete.str1.4
                0x00000000       0x3a build\kernel\src\ipc.o
 .text.rt_mq_delete
                0x00000000       0xf8 build\kernel\src\ipc.o
 .rodata.rt_mq_send_wait.str1.4
                0x00000000       0x1e build\kernel\src\ipc.o
 .text.rt_mq_send_wait
                0x00000000      0x2d8 build\kernel\src\ipc.o
 .text.rt_mq_send
                0x00000000        0x8 build\kernel\src\ipc.o
 .text.rt_mq_urgent
                0x00000000      0x108 build\kernel\src\ipc.o
 .text.rt_mq_recv
                0x00000000      0x2cc build\kernel\src\ipc.o
 .text.rt_mq_control
                0x00000000       0xdc build\kernel\src\ipc.o
 .rodata.__FUNCTION__.0
                0x00000000        0xe build\kernel\src\ipc.o
 .rodata.__FUNCTION__.1
                0x00000000        0xb build\kernel\src\ipc.o
 .rodata.__FUNCTION__.10
                0x00000000        0xd build\kernel\src\ipc.o
 .rodata.__FUNCTION__.11
                0x00000000       0x10 build\kernel\src\ipc.o
 .rodata.__FUNCTION__.12
                0x00000000        0xd build\kernel\src\ipc.o
 .rodata.__FUNCTION__.13
                0x00000000        0xd build\kernel\src\ipc.o
 .rodata.__FUNCTION__.14
                0x00000000        0xd build\kernel\src\ipc.o
 .rodata.__FUNCTION__.15
                0x00000000        0xb build\kernel\src\ipc.o
 .rodata.__FUNCTION__.16
                0x00000000       0x11 build\kernel\src\ipc.o
 .rodata.__FUNCTION__.17
                0x00000000        0xe build\kernel\src\ipc.o
 .rodata.__FUNCTION__.18
                0x00000000        0xe build\kernel\src\ipc.o
 .rodata.__FUNCTION__.19
                0x00000000       0x10 build\kernel\src\ipc.o
 .rodata.__FUNCTION__.2
                0x00000000        0xd build\kernel\src\ipc.o
 .rodata.__FUNCTION__.20
                0x00000000       0x10 build\kernel\src\ipc.o
 .rodata.__FUNCTION__.21
                0x00000000       0x10 build\kernel\src\ipc.o
 .rodata.__FUNCTION__.22
                0x00000000        0xe build\kernel\src\ipc.o
 .rodata.__FUNCTION__.23
                0x00000000       0x11 build\kernel\src\ipc.o
 .rodata.__FUNCTION__.26
                0x00000000       0x10 build\kernel\src\ipc.o
 .rodata.__FUNCTION__.27
                0x00000000       0x10 build\kernel\src\ipc.o
 .rodata.__FUNCTION__.28
                0x00000000       0x10 build\kernel\src\ipc.o
 .rodata.__FUNCTION__.3
                0x00000000       0x10 build\kernel\src\ipc.o
 .rodata.__FUNCTION__.30
                0x00000000        0xf build\kernel\src\ipc.o
 .rodata.__FUNCTION__.34
                0x00000000        0xe build\kernel\src\ipc.o
 .rodata.__FUNCTION__.35
                0x00000000        0xe build\kernel\src\ipc.o
 .rodata.__FUNCTION__.36
                0x00000000        0xe build\kernel\src\ipc.o
 .rodata.__FUNCTION__.4
                0x00000000        0xd build\kernel\src\ipc.o
 .rodata.__FUNCTION__.5
                0x00000000        0xd build\kernel\src\ipc.o
 .rodata.__FUNCTION__.6
                0x00000000        0xd build\kernel\src\ipc.o
 .rodata.__FUNCTION__.7
                0x00000000        0xb build\kernel\src\ipc.o
 .rodata.__FUNCTION__.8
                0x00000000        0xe build\kernel\src\ipc.o
 .rodata.__FUNCTION__.9
                0x00000000        0xb build\kernel\src\ipc.o
 .text          0x00000000        0x0 build\kernel\src\device.o
 .data          0x00000000        0x0 build\kernel\src\device.o
 .bss           0x00000000        0x0 build\kernel\src\device.o
 .text.rt_device_unregister
                0x00000000       0x5c build\kernel\src\device.o
 .text.rt_device_create
                0x00000000       0x24 build\kernel\src\device.o
 .rodata.rt_device_destroy.str1.4
                0x00000000       0x34 build\kernel\src\device.o
 .text.rt_device_destroy
                0x00000000       0x68 build\kernel\src\device.o
 .text.rt_device_init
                0x00000000       0x50 build\kernel\src\device.o
 .text.rt_device_control
                0x00000000       0x50 build\kernel\src\device.o
 .text.rt_device_set_tx_complete
                0x00000000       0x40 build\kernel\src\device.o
 .rodata.__FUNCTION__.0
                0x00000000       0x1a build\kernel\src\device.o
 .rodata.__FUNCTION__.2
                0x00000000       0x12 build\kernel\src\device.o
 .rodata.__FUNCTION__.7
                0x00000000        0xf build\kernel\src\device.o
 .rodata.__FUNCTION__.8
                0x00000000       0x12 build\kernel\src\device.o
 .rodata.__FUNCTION__.9
                0x00000000       0x15 build\kernel\src\device.o
 .text          0x00000000        0x0 build\kernel\src\scheduler.o
 .data          0x00000000        0x0 build\kernel\src\scheduler.o
 .bss           0x00000000        0x0 build\kernel\src\scheduler.o
 .text.rt_scheduler_sethook
                0x00000000        0xc build\kernel\src\scheduler.o
 .text.rt_scheduler_switch_sethook
                0x00000000        0xc build\kernel\src\scheduler.o
 .text          0x00000000        0x0 build\kernel\src\idle.o
 .data          0x00000000        0x0 build\kernel\src\idle.o
 .bss           0x00000000        0x0 build\kernel\src\idle.o
 .text.rt_thread_idle_sethook
                0x00000000       0x38 build\kernel\src\idle.o
 .text.rt_thread_idle_delhook
                0x00000000       0x3c build\kernel\src\idle.o
 .text.rt_thread_defunct_dequeue
                0x00000000       0x30 build\kernel\src\idle.o
 .text.rt_thread_idle_gethandler
                0x00000000        0x8 build\kernel\src\idle.o
 .text          0x00000000        0x0 build\kernel\src\object.o
 .data          0x00000000        0x0 build\kernel\src\object.o
 .bss           0x00000000        0x0 build\kernel\src\object.o
 .text.rt_object_attach_sethook
                0x00000000        0xc build\kernel\src\object.o
 .text.rt_object_detach_sethook
                0x00000000        0xc build\kernel\src\object.o
 .text.rt_object_trytake_sethook
                0x00000000        0xc build\kernel\src\object.o
 .text.rt_object_take_sethook
                0x00000000        0xc build\kernel\src\object.o
 .text.rt_object_put_sethook
                0x00000000        0xc build\kernel\src\object.o
 .text.rt_object_get_length
                0x00000000       0x44 build\kernel\src\object.o
 .text.rt_object_get_pointers
                0x00000000       0x6c build\kernel\src\object.o
 .text          0x00000000        0x0 build\kernel\src\kservice.o
 .data          0x00000000        0x0 build\kernel\src\kservice.o
 .bss           0x00000000        0x0 build\kernel\src\kservice.o
 .text.rt_get_errno
                0x00000000       0x20 build\kernel\src\kservice.o
 .text.rt_memcmp
                0x00000000       0x28 build\kernel\src\kservice.o
 .text.rt_strnlen
                0x00000000       0x24 build\kernel\src\kservice.o
 .text.rt_vsprintf
                0x00000000       0x14 build\kernel\src\kservice.o
 .text.rt_kputs
                0x00000000       0x2c build\kernel\src\kservice.o
 .rodata.rt_hw_us_delay.str1.4
                0x00000000       0x70 build\kernel\src\kservice.o
 .text.rt_hw_us_delay
                0x00000000       0x10 build\kernel\src\kservice.o
 .text.rt_malloc_sethook
                0x00000000        0xc build\kernel\src\kservice.o
 .text.rt_free_sethook
                0x00000000        0xc build\kernel\src\kservice.o
 .text.rt_malloc_align
                0x00000000       0x2c build\kernel\src\kservice.o
 .text.rt_free_align
                0x00000000       0x10 build\kernel\src\kservice.o
 .text.rt_assert_set_hook
                0x00000000        0xc build\kernel\src\kservice.o
 .text          0x00000000        0x0 build\kernel\libcpu\arm\common\div0.o
 .data          0x00000000        0x0 build\kernel\libcpu\arm\common\div0.o
 .bss           0x00000000        0x0 build\kernel\libcpu\arm\common\div0.o
 .text.__div0   0x00000000        0x4 build\kernel\libcpu\arm\common\div0.o
 .debug_info    0x00000000       0x40 build\kernel\libcpu\arm\common\div0.o
 .debug_abbrev  0x00000000       0x30 build\kernel\libcpu\arm\common\div0.o
 .debug_aranges
                0x00000000       0x20 build\kernel\libcpu\arm\common\div0.o
 .debug_ranges  0x00000000       0x10 build\kernel\libcpu\arm\common\div0.o
 .debug_line    0x00000000       0x69 build\kernel\libcpu\arm\common\div0.o
 .debug_str     0x00000000       0xec build\kernel\libcpu\arm\common\div0.o
 .comment       0x00000000       0x4a build\kernel\libcpu\arm\common\div0.o
 .debug_frame   0x00000000       0x20 build\kernel\libcpu\arm\common\div0.o
 .ARM.attributes
                0x00000000       0x2d build\kernel\libcpu\arm\common\div0.o
 .text          0x00000000        0x0 build\kernel\libcpu\arm\common\backtrace.o
 .data          0x00000000        0x0 build\kernel\libcpu\arm\common\backtrace.o
 .bss           0x00000000        0x0 build\kernel\libcpu\arm\common\backtrace.o
 .rodata.rt_hw_backtrace.str1.4
                0x00000000       0x19 build\kernel\libcpu\arm\common\backtrace.o
 .text.rt_hw_backtrace
                0x00000000       0x48 build\kernel\libcpu\arm\common\backtrace.o
 .debug_info    0x00000000      0x176 build\kernel\libcpu\arm\common\backtrace.o
 .debug_abbrev  0x00000000       0xeb build\kernel\libcpu\arm\common\backtrace.o
 .debug_loc     0x00000000      0x14d build\kernel\libcpu\arm\common\backtrace.o
 .debug_aranges
                0x00000000       0x20 build\kernel\libcpu\arm\common\backtrace.o
 .debug_ranges  0x00000000       0x10 build\kernel\libcpu\arm\common\backtrace.o
 .debug_line    0x00000000      0x1e3 build\kernel\libcpu\arm\common\backtrace.o
 .debug_str     0x00000000      0x1d2 build\kernel\libcpu\arm\common\backtrace.o
 .comment       0x00000000       0x4a build\kernel\libcpu\arm\common\backtrace.o
 .debug_frame   0x00000000       0x38 build\kernel\libcpu\arm\common\backtrace.o
 .ARM.attributes
                0x00000000       0x2d build\kernel\libcpu\arm\common\backtrace.o
 .text          0x00000000        0x0 build\kernel\libcpu\arm\common\showmem.o
 .data          0x00000000        0x0 build\kernel\libcpu\arm\common\showmem.o
 .bss           0x00000000        0x0 build\kernel\libcpu\arm\common\showmem.o
 .rodata.rt_hw_show_memory.str1.4
                0x00000000       0x22 build\kernel\libcpu\arm\common\showmem.o
 .text.rt_hw_show_memory
                0x00000000       0x74 build\kernel\libcpu\arm\common\showmem.o
 .rodata.__FUNCTION__.0
                0x00000000       0x12 build\kernel\libcpu\arm\common\showmem.o
 .debug_info    0x00000000      0x1b5 build\kernel\libcpu\arm\common\showmem.o
 .debug_abbrev  0x00000000       0xdd build\kernel\libcpu\arm\common\showmem.o
 .debug_loc     0x00000000      0x16c build\kernel\libcpu\arm\common\showmem.o
 .debug_aranges
                0x00000000       0x20 build\kernel\libcpu\arm\common\showmem.o
 .debug_ranges  0x00000000       0x10 build\kernel\libcpu\arm\common\showmem.o
 .debug_line    0x00000000      0x228 build\kernel\libcpu\arm\common\showmem.o
 .debug_str     0x00000000      0x1e3 build\kernel\libcpu\arm\common\showmem.o
 .comment       0x00000000       0x4a build\kernel\libcpu\arm\common\showmem.o
 .debug_frame   0x00000000       0x34 build\kernel\libcpu\arm\common\showmem.o
 .ARM.attributes
                0x00000000       0x2d build\kernel\libcpu\arm\common\showmem.o
 .data          0x00000000        0x0 build\kernel\libcpu\arm\cortex-m3\context_gcc.o
 .bss           0x00000000        0x0 build\kernel\libcpu\arm\cortex-m3\context_gcc.o
 .text          0x00000000        0x0 build\kernel\libcpu\arm\cortex-m3\cpuport.o
 .data          0x00000000        0x0 build\kernel\libcpu\arm\cortex-m3\cpuport.o
 .bss           0x00000000        0x0 build\kernel\libcpu\arm\cortex-m3\cpuport.o
 .text.rt_hw_exception_install
                0x00000000        0xc build\kernel\libcpu\arm\cortex-m3\cpuport.o
 .rodata.rt_hw_cpu_shutdown.str1.4
                0x00000000       0x12 build\kernel\libcpu\arm\cortex-m3\cpuport.o
 .text.rt_hw_cpu_shutdown
                0x00000000       0x24 build\kernel\libcpu\arm\cortex-m3\cpuport.o
 .rodata.__FUNCTION__.0
                0x00000000       0x13 build\kernel\libcpu\arm\cortex-m3\cpuport.o
 .text          0x00000000        0x0 build\kernel\components\dfs\src\dfs_posix.o
 .data          0x00000000        0x0 build\kernel\components\dfs\src\dfs_posix.o
 .bss           0x00000000        0x0 build\kernel\components\dfs\src\dfs_posix.o
 .text.creat    0x00000000        0xc build\kernel\components\dfs\src\dfs_posix.o
 .text.fstat    0x00000000       0x48 build\kernel\components\dfs\src\dfs_posix.o
 .text.fsync    0x00000000       0x2c build\kernel\components\dfs\src\dfs_posix.o
 .text.fcntl    0x00000000       0x44 build\kernel\components\dfs\src\dfs_posix.o
 .text.ioctl    0x00000000       0x20 build\kernel\components\dfs\src\dfs_posix.o
 .text.ftruncate
                0x00000000       0x54 build\kernel\components\dfs\src\dfs_posix.o
 .text.statfs   0x00000000       0x18 build\kernel\components\dfs\src\dfs_posix.o
 .text.rmdir    0x00000000       0x1c build\kernel\components\dfs\src\dfs_posix.o
 .text.telldir  0x00000000       0x2c build\kernel\components\dfs\src\dfs_posix.o
 .text.seekdir  0x00000000       0x38 build\kernel\components\dfs\src\dfs_posix.o
 .text.access   0x00000000       0x24 build\kernel\components\dfs\src\dfs_posix.o
 .text          0x00000000        0x0 build\kernel\components\dfs\src\dfs_fs.o
 .data          0x00000000        0x0 build\kernel\components\dfs\src\dfs_fs.o
 .bss           0x00000000        0x0 build\kernel\components\dfs\src\dfs_fs.o
 .text.dfs_register
                0x00000000       0x80 build\kernel\components\dfs\src\dfs_fs.o
 .text.dfs_filesystem_get_mounted_path
                0x00000000       0x38 build\kernel\components\dfs\src\dfs_fs.o
 .rodata.dfs_filesystem_get_partition.str1.4
                0x00000000       0x5c build\kernel\components\dfs\src\dfs_fs.o
 .text.dfs_filesystem_get_partition
                0x00000000       0xc4 build\kernel\components\dfs\src\dfs_fs.o
 .text.dfs_statfs
                0x00000000       0x20 build\kernel\components\dfs\src\dfs_fs.o
 .text.mkfs     0x00000000        0x4 build\kernel\components\dfs\src\dfs_fs.o
 .rodata.__FUNCTION__.0
                0x00000000       0x1d build\kernel\components\dfs\src\dfs_fs.o
 .text          0x00000000        0x0 build\kernel\components\dfs\src\dfs.o
 .data          0x00000000        0x0 build\kernel\components\dfs\src\dfs.o
 .bss           0x00000000        0x0 build\kernel\components\dfs\src\dfs.o
 .text.dfs_fdtable_get
                0x00000000        0x8 build\kernel\components\dfs\src\dfs.o
 .text          0x00000000        0x0 build\kernel\components\dfs\src\dfs_file.o
 .data          0x00000000        0x0 build\kernel\components\dfs\src\dfs_file.o
 .bss           0x00000000        0x0 build\kernel\components\dfs\src\dfs_file.o
 .text.dfs_file_ioctl
                0x00000000       0x44 build\kernel\components\dfs\src\dfs_file.o
 .text.dfs_file_flush
                0x00000000       0x18 build\kernel\components\dfs\src\dfs_file.o
 .text.dfs_file_ftruncate
                0x00000000       0x38 build\kernel\components\dfs\src\dfs_file.o
 .rodata.rm.str1.4
                0x00000000       0x12 build\kernel\components\dfs\src\dfs_file.o
 .text.rm       0x00000000       0x20 build\kernel\components\dfs\src\dfs_file.o
 .text          0x00000000        0x0 build\kernel\components\drivers\ipc\completion.o
 .data          0x00000000        0x0 build\kernel\components\drivers\ipc\completion.o
 .bss           0x00000000        0x0 build\kernel\components\drivers\ipc\completion.o
 .text          0x00000000        0x0 build\kernel\components\drivers\ipc\dataqueue.o
 .data          0x00000000        0x0 build\kernel\components\drivers\ipc\dataqueue.o
 .bss           0x00000000        0x0 build\kernel\components\drivers\ipc\dataqueue.o
 .text          0x00000000        0x0 build\kernel\components\drivers\ipc\ringblk_buf.o
 .data          0x00000000        0x0 build\kernel\components\drivers\ipc\ringblk_buf.o
 .bss           0x00000000        0x0 build\kernel\components\drivers\ipc\ringblk_buf.o
 .rodata.rt_rbb_init.str1.4
                0x00000000       0x12 build\kernel\components\drivers\ipc\ringblk_buf.o
 .text.rt_rbb_init
                0x00000000       0x88 build\kernel\components\drivers\ipc\ringblk_buf.o
 .text.rt_rbb_create
                0x00000000       0x5c build\kernel\components\drivers\ipc\ringblk_buf.o
 .text.rt_rbb_destroy
                0x00000000       0x30 build\kernel\components\drivers\ipc\ringblk_buf.o
 .rodata.rt_rbb_blk_alloc.str1.4
                0x00000000       0x3a build\kernel\components\drivers\ipc\ringblk_buf.o
 .text.rt_rbb_blk_alloc
                0x00000000      0x188 build\kernel\components\drivers\ipc\ringblk_buf.o
 .rodata.rt_rbb_blk_put.str1.4
                0x00000000       0x2b build\kernel\components\drivers\ipc\ringblk_buf.o
 .text.rt_rbb_blk_put
                0x00000000       0x38 build\kernel\components\drivers\ipc\ringblk_buf.o
 .text.rt_rbb_blk_get
                0x00000000       0x44 build\kernel\components\drivers\ipc\ringblk_buf.o
 .text.rt_rbb_blk_size
                0x00000000       0x28 build\kernel\components\drivers\ipc\ringblk_buf.o
 .text.rt_rbb_blk_buf
                0x00000000       0x24 build\kernel\components\drivers\ipc\ringblk_buf.o
 .rodata.rt_rbb_blk_free.str1.4
                0x00000000       0x23 build\kernel\components\drivers\ipc\ringblk_buf.o
 .text.rt_rbb_blk_free
                0x00000000       0x8c build\kernel\components\drivers\ipc\ringblk_buf.o
 .rodata.rt_rbb_blk_queue_get.str1.4
                0x00000000        0xa build\kernel\components\drivers\ipc\ringblk_buf.o
 .text.rt_rbb_blk_queue_get
                0x00000000       0xc0 build\kernel\components\drivers\ipc\ringblk_buf.o
 .text.rt_rbb_blk_queue_len
                0x00000000       0x44 build\kernel\components\drivers\ipc\ringblk_buf.o
 .text.rt_rbb_blk_queue_buf
                0x00000000       0x28 build\kernel\components\drivers\ipc\ringblk_buf.o
 .text.rt_rbb_blk_queue_free
                0x00000000       0x54 build\kernel\components\drivers\ipc\ringblk_buf.o
 .text.rt_rbb_next_blk_queue_len
                0x00000000       0x74 build\kernel\components\drivers\ipc\ringblk_buf.o
 .text.rt_rbb_get_buf_size
                0x00000000       0x24 build\kernel\components\drivers\ipc\ringblk_buf.o
 .rodata.__FUNCTION__.0
                0x00000000       0x14 build\kernel\components\drivers\ipc\ringblk_buf.o
 .rodata.__FUNCTION__.1
                0x00000000       0x1a build\kernel\components\drivers\ipc\ringblk_buf.o
 .rodata.__FUNCTION__.10
                0x00000000        0xf build\kernel\components\drivers\ipc\ringblk_buf.o
 .rodata.__FUNCTION__.11
                0x00000000       0x16 build\kernel\components\drivers\ipc\ringblk_buf.o
 .rodata.__FUNCTION__.12
                0x00000000       0x11 build\kernel\components\drivers\ipc\ringblk_buf.o
 .rodata.__FUNCTION__.13
                0x00000000        0xf build\kernel\components\drivers\ipc\ringblk_buf.o
 .rodata.__FUNCTION__.14
                0x00000000        0xc build\kernel\components\drivers\ipc\ringblk_buf.o
 .rodata.__FUNCTION__.2
                0x00000000       0x16 build\kernel\components\drivers\ipc\ringblk_buf.o
 .rodata.__FUNCTION__.3
                0x00000000       0x15 build\kernel\components\drivers\ipc\ringblk_buf.o
 .rodata.__FUNCTION__.4
                0x00000000       0x15 build\kernel\components\drivers\ipc\ringblk_buf.o
 .rodata.__FUNCTION__.5
                0x00000000       0x15 build\kernel\components\drivers\ipc\ringblk_buf.o
 .rodata.__FUNCTION__.6
                0x00000000       0x10 build\kernel\components\drivers\ipc\ringblk_buf.o
 .rodata.__FUNCTION__.7
                0x00000000        0xf build\kernel\components\drivers\ipc\ringblk_buf.o
 .rodata.__FUNCTION__.8
                0x00000000       0x10 build\kernel\components\drivers\ipc\ringblk_buf.o
 .rodata.__FUNCTION__.9
                0x00000000        0xf build\kernel\components\drivers\ipc\ringblk_buf.o
 .debug_info    0x00000000     0x14e7 build\kernel\components\drivers\ipc\ringblk_buf.o
 .debug_abbrev  0x00000000      0x394 build\kernel\components\drivers\ipc\ringblk_buf.o
 .debug_loc     0x00000000     0x1437 build\kernel\components\drivers\ipc\ringblk_buf.o
 .debug_aranges
                0x00000000       0x90 build\kernel\components\drivers\ipc\ringblk_buf.o
 .debug_ranges  0x00000000      0x278 build\kernel\components\drivers\ipc\ringblk_buf.o
 .debug_line    0x00000000     0x10d3 build\kernel\components\drivers\ipc\ringblk_buf.o
 .debug_str     0x00000000      0x55d build\kernel\components\drivers\ipc\ringblk_buf.o
 .comment       0x00000000       0x4a build\kernel\components\drivers\ipc\ringblk_buf.o
 .debug_frame   0x00000000      0x1cc build\kernel\components\drivers\ipc\ringblk_buf.o
 .ARM.attributes
                0x00000000       0x2d build\kernel\components\drivers\ipc\ringblk_buf.o
 .text          0x00000000        0x0 build\kernel\components\drivers\ipc\workqueue.o
 .data          0x00000000        0x0 build\kernel\components\drivers\ipc\workqueue.o
 .bss           0x00000000        0x0 build\kernel\components\drivers\ipc\workqueue.o
 .rodata._workqueue_submit_work.str1.4
                0x00000000        0x5 build\kernel\components\drivers\ipc\workqueue.o
 .text._workqueue_submit_work
                0x00000000       0xf4 build\kernel\components\drivers\ipc\workqueue.o
 .rodata._delayed_work_timeout_handler.str1.4
                0x00000000       0x11 build\kernel\components\drivers\ipc\workqueue.o
 .text._delayed_work_timeout_handler
                0x00000000       0x88 build\kernel\components\drivers\ipc\workqueue.o
 .text._workqueue_cancel_work
                0x00000000       0x58 build\kernel\components\drivers\ipc\workqueue.o
 .text._workqueue_thread_entry
                0x00000000       0x98 build\kernel\components\drivers\ipc\workqueue.o
 .rodata.rt_work_init.str1.4
                0x00000000       0x25 build\kernel\components\drivers\ipc\workqueue.o
 .text.rt_work_init
                0x00000000       0x44 build\kernel\components\drivers\ipc\workqueue.o
 .rodata.rt_workqueue_create.str1.4
                0x00000000        0x7 build\kernel\components\drivers\ipc\workqueue.o
 .text.rt_workqueue_create
                0x00000000       0x68 build\kernel\components\drivers\ipc\workqueue.o
 .text.rt_workqueue_dowork
                0x00000000       0x50 build\kernel\components\drivers\ipc\workqueue.o
 .rodata.rt_workqueue_submit_work.str1.4
                0x00000000       0x18 build\kernel\components\drivers\ipc\workqueue.o
 .text.rt_workqueue_submit_work
                0x00000000       0x6c build\kernel\components\drivers\ipc\workqueue.o
 .text.rt_workqueue_urgent_work
                0x00000000       0x7c build\kernel\components\drivers\ipc\workqueue.o
 .text.rt_workqueue_cancel_work
                0x00000000       0x4c build\kernel\components\drivers\ipc\workqueue.o
 .text.rt_workqueue_cancel_work_sync
                0x00000000       0x58 build\kernel\components\drivers\ipc\workqueue.o
 .text.rt_workqueue_cancel_all_work
                0x00000000       0x50 build\kernel\components\drivers\ipc\workqueue.o
 .text.rt_workqueue_destroy
                0x00000000       0x3c build\kernel\components\drivers\ipc\workqueue.o
 .rodata.__FUNCTION__.0
                0x00000000       0x1d build\kernel\components\drivers\ipc\workqueue.o
 .rodata.__FUNCTION__.1
                0x00000000       0x1e build\kernel\components\drivers\ipc\workqueue.o
 .rodata.__FUNCTION__.2
                0x00000000       0x19 build\kernel\components\drivers\ipc\workqueue.o
 .rodata.__FUNCTION__.3
                0x00000000       0x19 build\kernel\components\drivers\ipc\workqueue.o
 .rodata.__FUNCTION__.4
                0x00000000       0x19 build\kernel\components\drivers\ipc\workqueue.o
 .rodata.__FUNCTION__.5
                0x00000000       0x1e build\kernel\components\drivers\ipc\workqueue.o
 .rodata.__FUNCTION__.6
                0x00000000       0x14 build\kernel\components\drivers\ipc\workqueue.o
 .rodata.__FUNCTION__.7
                0x00000000       0x15 build\kernel\components\drivers\ipc\workqueue.o
 .rodata.__FUNCTION__.8
                0x00000000       0x18 build\kernel\components\drivers\ipc\workqueue.o
 .rodata.__FUNCTION__.9
                0x00000000        0xd build\kernel\components\drivers\ipc\workqueue.o
 .debug_info    0x00000000     0x1663 build\kernel\components\drivers\ipc\workqueue.o
 .debug_abbrev  0x00000000      0x34a build\kernel\components\drivers\ipc\workqueue.o
 .debug_loc     0x00000000      0xf03 build\kernel\components\drivers\ipc\workqueue.o
 .debug_aranges
                0x00000000       0x80 build\kernel\components\drivers\ipc\workqueue.o
 .debug_ranges  0x00000000      0x218 build\kernel\components\drivers\ipc\workqueue.o
 .debug_line    0x00000000      0xd7b build\kernel\components\drivers\ipc\workqueue.o
 .debug_str     0x00000000      0x73c build\kernel\components\drivers\ipc\workqueue.o
 .comment       0x00000000       0x4a build\kernel\components\drivers\ipc\workqueue.o
 .debug_frame   0x00000000      0x1e4 build\kernel\components\drivers\ipc\workqueue.o
 .ARM.attributes
                0x00000000       0x2d build\kernel\components\drivers\ipc\workqueue.o
 .text          0x00000000        0x0 build\kernel\components\drivers\ipc\ringbuffer.o
 .data          0x00000000        0x0 build\kernel\components\drivers\ipc\ringbuffer.o
 .bss           0x00000000        0x0 build\kernel\components\drivers\ipc\ringbuffer.o
 .rodata.rt_ringbuffer_init.str1.4
                0x00000000       0x19 build\kernel\components\drivers\ipc\ringbuffer.o
 .text.rt_ringbuffer_init
                0x00000000       0x40 build\kernel\components\drivers\ipc\ringbuffer.o
 .text.rt_ringbuffer_peek
                0x00000000       0x88 build\kernel\components\drivers\ipc\ringbuffer.o
 .text.rt_ringbuffer_putchar
                0x00000000       0x84 build\kernel\components\drivers\ipc\ringbuffer.o
 .text.rt_ringbuffer_putchar_force
                0x00000000       0x90 build\kernel\components\drivers\ipc\ringbuffer.o
 .text.rt_ringbuffer_getchar
                0x00000000       0x84 build\kernel\components\drivers\ipc\ringbuffer.o
 .text.rt_ringbuffer_data_len
                0x00000000       0x3c build\kernel\components\drivers\ipc\ringbuffer.o
 .text.rt_ringbuffer_put
                0x00000000       0xa4 build\kernel\components\drivers\ipc\ringbuffer.o
 .text.rt_ringbuffer_put_force
                0x00000000       0xe8 build\kernel\components\drivers\ipc\ringbuffer.o
 .text.rt_ringbuffer_get
                0x00000000       0xa0 build\kernel\components\drivers\ipc\ringbuffer.o
 .text.rt_ringbuffer_reset
                0x00000000       0x28 build\kernel\components\drivers\ipc\ringbuffer.o
 .text.rt_ringbuffer_create
                0x00000000       0x64 build\kernel\components\drivers\ipc\ringbuffer.o
 .text.rt_ringbuffer_destroy
                0x00000000       0x2c build\kernel\components\drivers\ipc\ringbuffer.o
 .rodata.__FUNCTION__.0
                0x00000000       0x16 build\kernel\components\drivers\ipc\ringbuffer.o
 .rodata.__FUNCTION__.1
                0x00000000       0x15 build\kernel\components\drivers\ipc\ringbuffer.o
 .rodata.__FUNCTION__.10
                0x00000000       0x13 build\kernel\components\drivers\ipc\ringbuffer.o
 .rodata.__FUNCTION__.2
                0x00000000       0x14 build\kernel\components\drivers\ipc\ringbuffer.o
 .rodata.__FUNCTION__.3
                0x00000000       0x16 build\kernel\components\drivers\ipc\ringbuffer.o
 .rodata.__FUNCTION__.4
                0x00000000       0x1c build\kernel\components\drivers\ipc\ringbuffer.o
 .rodata.__FUNCTION__.5
                0x00000000       0x16 build\kernel\components\drivers\ipc\ringbuffer.o
 .rodata.__FUNCTION__.6
                0x00000000       0x13 build\kernel\components\drivers\ipc\ringbuffer.o
 .rodata.__FUNCTION__.7
                0x00000000       0x12 build\kernel\components\drivers\ipc\ringbuffer.o
 .rodata.__FUNCTION__.8
                0x00000000       0x18 build\kernel\components\drivers\ipc\ringbuffer.o
 .rodata.__FUNCTION__.9
                0x00000000       0x12 build\kernel\components\drivers\ipc\ringbuffer.o
 .debug_info    0x00000000      0xd3a build\kernel\components\drivers\ipc\ringbuffer.o
 .debug_abbrev  0x00000000      0x319 build\kernel\components\drivers\ipc\ringbuffer.o
 .debug_loc     0x00000000      0xcdf build\kernel\components\drivers\ipc\ringbuffer.o
 .debug_aranges
                0x00000000       0x78 build\kernel\components\drivers\ipc\ringbuffer.o
 .debug_ranges  0x00000000      0x158 build\kernel\components\drivers\ipc\ringbuffer.o
 .debug_line    0x00000000      0xcbf build\kernel\components\drivers\ipc\ringbuffer.o
 .debug_str     0x00000000      0x414 build\kernel\components\drivers\ipc\ringbuffer.o
 .comment       0x00000000       0x4a build\kernel\components\drivers\ipc\ringbuffer.o
 .debug_frame   0x00000000      0x160 build\kernel\components\drivers\ipc\ringbuffer.o
 .ARM.attributes
                0x00000000       0x2d build\kernel\components\drivers\ipc\ringbuffer.o
 .text          0x00000000        0x0 build\kernel\components\drivers\ipc\waitqueue.o
 .data          0x00000000        0x0 build\kernel\components\drivers\ipc\waitqueue.o
 .bss           0x00000000        0x0 build\kernel\components\drivers\ipc\waitqueue.o
 .text.__wqueue_default_wake
                0x00000000        0x4 build\kernel\components\drivers\ipc\waitqueue.o
 .text.rt_wqueue_add
                0x00000000       0x20 build\kernel\components\drivers\ipc\waitqueue.o
 .text.rt_wqueue_remove
                0x00000000       0x20 build\kernel\components\drivers\ipc\waitqueue.o
 .text.rt_wqueue_wakeup
                0x00000000       0x5c build\kernel\components\drivers\ipc\waitqueue.o
 .rodata.rt_wqueue_wait.str1.4
                0x00000000       0x8f build\kernel\components\drivers\ipc\waitqueue.o
 .text.rt_wqueue_wait
                0x00000000      0x15c build\kernel\components\drivers\ipc\waitqueue.o
 .rodata.__FUNCTION__.0
                0x00000000        0xf build\kernel\components\drivers\ipc\waitqueue.o
 .debug_info    0x00000000      0xd13 build\kernel\components\drivers\ipc\waitqueue.o
 .debug_abbrev  0x00000000      0x315 build\kernel\components\drivers\ipc\waitqueue.o
 .debug_loc     0x00000000      0x73c build\kernel\components\drivers\ipc\waitqueue.o
 .debug_aranges
                0x00000000       0x40 build\kernel\components\drivers\ipc\waitqueue.o
 .debug_ranges  0x00000000      0x108 build\kernel\components\drivers\ipc\waitqueue.o
 .debug_line    0x00000000      0x5c8 build\kernel\components\drivers\ipc\waitqueue.o
 .debug_str     0x00000000      0x55a build\kernel\components\drivers\ipc\waitqueue.o
 .comment       0x00000000       0x4a build\kernel\components\drivers\ipc\waitqueue.o
 .debug_frame   0x00000000       0xcc build\kernel\components\drivers\ipc\waitqueue.o
 .ARM.attributes
                0x00000000       0x2d build\kernel\components\drivers\ipc\waitqueue.o
 .text          0x00000000        0x0 build\kernel\components\drivers\ipc\pipe.o
 .data          0x00000000        0x0 build\kernel\components\drivers\ipc\pipe.o
 .bss           0x00000000        0x0 build\kernel\components\drivers\ipc\pipe.o
 .text.rt_pipe_control
                0x00000000        0x4 build\kernel\components\drivers\ipc\pipe.o
 .text.rt_pipe_close
                0x00000000       0x40 build\kernel\components\drivers\ipc\pipe.o
 .text.rt_pipe_open
                0x00000000       0x40 build\kernel\components\drivers\ipc\pipe.o
 .text.rt_pipe_write
                0x00000000       0x58 build\kernel\components\drivers\ipc\pipe.o
 .text.rt_pipe_read
                0x00000000       0x58 build\kernel\components\drivers\ipc\pipe.o
 .rodata.rt_pipe_create.str1.4
                0x00000000        0xf build\kernel\components\drivers\ipc\pipe.o
 .text.rt_pipe_create
                0x00000000       0xac build\kernel\components\drivers\ipc\pipe.o
 .text.rt_pipe_delete
                0x00000000       0x40 build\kernel\components\drivers\ipc\pipe.o
 .rodata.__FUNCTION__.1
                0x00000000        0xf build\kernel\components\drivers\ipc\pipe.o
 .debug_info    0x00000000     0x11bc build\kernel\components\drivers\ipc\pipe.o
 .debug_abbrev  0x00000000      0x38a build\kernel\components\drivers\ipc\pipe.o
 .debug_loc     0x00000000      0x8ef build\kernel\components\drivers\ipc\pipe.o
 .debug_aranges
                0x00000000       0x50 build\kernel\components\drivers\ipc\pipe.o
 .debug_ranges  0x00000000       0xf0 build\kernel\components\drivers\ipc\pipe.o
 .debug_line    0x00000000      0x64f build\kernel\components\drivers\ipc\pipe.o
 .debug_str     0x00000000      0x98e build\kernel\components\drivers\ipc\pipe.o
 .comment       0x00000000       0x4a build\kernel\components\drivers\ipc\pipe.o
 .debug_frame   0x00000000       0xe4 build\kernel\components\drivers\ipc\pipe.o
 .ARM.attributes
                0x00000000       0x2d build\kernel\components\drivers\ipc\pipe.o
 .text          0x00000000        0x0 build\kernel\components\drivers\misc\pin.o
 .data          0x00000000        0x0 build\kernel\components\drivers\misc\pin.o
 .bss           0x00000000        0x0 build\kernel\components\drivers\misc\pin.o
 .text.rt_pin_detach_irq
                0x00000000       0x38 build\kernel\components\drivers\misc\pin.o
 .rodata.__FUNCTION__.5
                0x00000000       0x12 build\kernel\components\drivers\misc\pin.o
 .text          0x00000000        0x0 build\kernel\components\drivers\serial\serial.o
 .data          0x00000000        0x0 build\kernel\components\drivers\serial\serial.o
 .bss           0x00000000        0x0 build\kernel\components\drivers\serial\serial.o
 .text          0x00000000        0x0 build\kernel\components\finsh\shell.o
 .data          0x00000000        0x0 build\kernel\components\finsh\shell.o
 .bss           0x00000000        0x0 build\kernel\components\finsh\shell.o
 .text.finsh_set_prompt
                0x00000000       0x34 build\kernel\components\finsh\shell.o
 .text.finsh_get_prompt_mode
                0x00000000       0x34 build\kernel\components\finsh\shell.o
 .text.finsh_set_prompt_mode
                0x00000000       0x40 build\kernel\components\finsh\shell.o
 .text.finsh_get_device
                0x00000000       0x2c build\kernel\components\finsh\shell.o
 .text.finsh_set_echo
                0x00000000       0x40 build\kernel\components\finsh\shell.o
 .text.finsh_get_echo
                0x00000000       0x38 build\kernel\components\finsh\shell.o
 .text.finsh_system_function_init
                0x00000000       0x14 build\kernel\components\finsh\shell.o
 .rodata.__FUNCTION__.0
                0x00000000        0xf build\kernel\components\finsh\shell.o
 .rodata.__FUNCTION__.1
                0x00000000        0xf build\kernel\components\finsh\shell.o
 .rodata.__FUNCTION__.2
                0x00000000       0x11 build\kernel\components\finsh\shell.o
 .rodata.__FUNCTION__.7
                0x00000000       0x16 build\kernel\components\finsh\shell.o
 .text          0x00000000        0x0 build\kernel\components\finsh\msh.o
 .data          0x00000000        0x0 build\kernel\components\finsh\msh.o
 .bss           0x00000000        0x0 build\kernel\components\finsh\msh.o
 .text.msh_auto_complete_path
                0x00000000        0x8 build\kernel\components\finsh\msh.o
 .text          0x00000000        0x0 build\kernel\components\finsh\msh_parse.o
 .data          0x00000000        0x0 build\kernel\components\finsh\msh_parse.o
 .bss           0x00000000        0x0 build\kernel\components\finsh\msh_parse.o
 .text.msh_ishex
                0x00000000       0x50 build\kernel\components\finsh\msh_parse.o
 .text.msh_strtohex
                0x00000000       0x44 build\kernel\components\finsh\msh_parse.o
 .text          0x00000000        0x0 build\kernel\components\finsh\cmd.o
 .data          0x00000000        0x0 build\kernel\components\finsh\cmd.o
 .bss           0x00000000        0x0 build\kernel\components\finsh\cmd.o
 .text          0x00000000        0x0 build\kernel\components\finsh\msh_file.o
 .data          0x00000000        0x0 build\kernel\components\finsh\msh_file.o
 .bss           0x00000000        0x0 build\kernel\components\finsh\msh_file.o
 .text          0x00000000        0x0 build\kernel\components\libc\compilers\common\cwchar.o
 .data          0x00000000        0x0 build\kernel\components\libc\compilers\common\cwchar.o
 .bss           0x00000000        0x0 build\kernel\components\libc\compilers\common\cwchar.o
 .text.wcwidth  0x00000000       0xc4 build\kernel\components\libc\compilers\common\cwchar.o
 .text.wcswidth
                0x00000000       0x38 build\kernel\components\libc\compilers\common\cwchar.o
 .rodata.combining.0
                0x00000000      0x320 build\kernel\components\libc\compilers\common\cwchar.o
 .debug_info    0x00000000      0x285 build\kernel\components\libc\compilers\common\cwchar.o
 .debug_abbrev  0x00000000      0x1d1 build\kernel\components\libc\compilers\common\cwchar.o
 .debug_loc     0x00000000      0x346 build\kernel\components\libc\compilers\common\cwchar.o
 .debug_aranges
                0x00000000       0x28 build\kernel\components\libc\compilers\common\cwchar.o
 .debug_ranges  0x00000000       0x50 build\kernel\components\libc\compilers\common\cwchar.o
 .debug_line    0x00000000      0x213 build\kernel\components\libc\compilers\common\cwchar.o
 .debug_str     0x00000000      0x1e3 build\kernel\components\libc\compilers\common\cwchar.o
 .comment       0x00000000       0x4a build\kernel\components\libc\compilers\common\cwchar.o
 .debug_frame   0x00000000       0x58 build\kernel\components\libc\compilers\common\cwchar.o
 .ARM.attributes
                0x00000000       0x2d build\kernel\components\libc\compilers\common\cwchar.o
 .text          0x00000000        0x0 build\kernel\components\libc\compilers\common\cstdlib.o
 .data          0x00000000        0x0 build\kernel\components\libc\compilers\common\cstdlib.o
 .bss           0x00000000        0x0 build\kernel\components\libc\compilers\common\cstdlib.o
 .rodata.__rt_libc_exit.str1.4
                0x00000000       0x22 build\kernel\components\libc\compilers\common\cstdlib.o
 .text.__rt_libc_exit
                0x00000000       0x40 build\kernel\components\libc\compilers\common\cstdlib.o
 .text.system   0x00000000       0x1c build\kernel\components\libc\compilers\common\cstdlib.o
 .text.ltoa     0x00000000       0x8c build\kernel\components\libc\compilers\common\cstdlib.o
 .text.itoa     0x00000000        0x4 build\kernel\components\libc\compilers\common\cstdlib.o
 .text.ultoa    0x00000000       0x70 build\kernel\components\libc\compilers\common\cstdlib.o
 .text.utoa     0x00000000        0x4 build\kernel\components\libc\compilers\common\cstdlib.o
 .debug_info    0x00000000      0x7b0 build\kernel\components\libc\compilers\common\cstdlib.o
 .debug_abbrev  0x00000000      0x1e8 build\kernel\components\libc\compilers\common\cstdlib.o
 .debug_loc     0x00000000      0x74b build\kernel\components\libc\compilers\common\cstdlib.o
 .debug_aranges
                0x00000000       0x48 build\kernel\components\libc\compilers\common\cstdlib.o
 .debug_ranges  0x00000000       0x38 build\kernel\components\libc\compilers\common\cstdlib.o
 .debug_line    0x00000000      0x4cb build\kernel\components\libc\compilers\common\cstdlib.o
 .debug_str     0x00000000      0x3bb build\kernel\components\libc\compilers\common\cstdlib.o
 .comment       0x00000000       0x4a build\kernel\components\libc\compilers\common\cstdlib.o
 .debug_frame   0x00000000       0xcc build\kernel\components\libc\compilers\common\cstdlib.o
 .ARM.attributes
                0x00000000       0x2d build\kernel\components\libc\compilers\common\cstdlib.o
 .text          0x00000000        0x0 build\kernel\components\libc\compilers\common\ctime.o
 .data          0x00000000        0x0 build\kernel\components\libc\compilers\common\ctime.o
 .bss           0x00000000        0x0 build\kernel\components\libc\compilers\common\ctime.o
 .text.gmtime_r
                0x00000000      0x188 build\kernel\components\libc\compilers\common\ctime.o
 .text.gmtime   0x00000000        0xc build\kernel\components\libc\compilers\common\ctime.o
 .text.localtime_r
                0x00000000       0x64 build\kernel\components\libc\compilers\common\ctime.o
 .text.localtime
                0x00000000       0x68 build\kernel\components\libc\compilers\common\ctime.o
 .rodata.asctime_r.str1.4
                0x00000000       0xa9 build\kernel\components\libc\compilers\common\ctime.o
 .text.asctime_r
                0x00000000      0x250 build\kernel\components\libc\compilers\common\ctime.o
 .text.asctime  0x00000000        0xc build\kernel\components\libc\compilers\common\ctime.o
 .text.ctime_r  0x00000000       0x70 build\kernel\components\libc\compilers\common\ctime.o
 .text.ctime    0x00000000       0x74 build\kernel\components\libc\compilers\common\ctime.o
 .text.difftime
                0x00000000       0x10 build\kernel\components\libc\compilers\common\ctime.o
 .rodata.time.str1.4
                0x00000000       0x1a build\kernel\components\libc\compilers\common\ctime.o
 .text.time     0x00000000       0x30 build\kernel\components\libc\compilers\common\ctime.o
 .text.clock    0x00000000        0x4 build\kernel\components\libc\compilers\common\ctime.o
 .text.stime    0x00000000       0x30 build\kernel\components\libc\compilers\common\ctime.o
 .text.timegm   0x00000000      0x320 build\kernel\components\libc\compilers\common\ctime.o
 .text.mktime   0x00000000       0x50 build\kernel\components\libc\compilers\common\ctime.o
 .text.gettimeofday
                0x00000000       0x48 build\kernel\components\libc\compilers\common\ctime.o
 .text.settimeofday
                0x00000000       0x34 build\kernel\components\libc\compilers\common\ctime.o
 .text.tz_set   0x00000000       0x18 build\kernel\components\libc\compilers\common\ctime.o
 .text.tz_get   0x00000000        0xc build\kernel\components\libc\compilers\common\ctime.o
 .text.tz_is_dst
                0x00000000        0x4 build\kernel\components\libc\compilers\common\ctime.o
 .bss.buf.0     0x00000000       0x1a build\kernel\components\libc\compilers\common\ctime.o
 .bss.tmp.1     0x00000000       0x24 build\kernel\components\libc\compilers\common\ctime.o
 .bss.tmp.2     0x00000000       0x24 build\kernel\components\libc\compilers\common\ctime.o
 .data._current_timezone
                0x00000000        0x1 build\kernel\components\libc\compilers\common\ctime.o
 .rodata.__spm  0x00000000       0x1a build\kernel\components\libc\compilers\common\ctime.o
 .debug_info    0x00000000     0x1107 build\kernel\components\libc\compilers\common\ctime.o
 .debug_abbrev  0x00000000      0x44f build\kernel\components\libc\compilers\common\ctime.o
 .debug_loc     0x00000000      0xdb7 build\kernel\components\libc\compilers\common\ctime.o
 .debug_aranges
                0x00000000       0xb0 build\kernel\components\libc\compilers\common\ctime.o
 .debug_ranges  0x00000000      0x3e8 build\kernel\components\libc\compilers\common\ctime.o
 .debug_line    0x00000000      0xe1c build\kernel\components\libc\compilers\common\ctime.o
 .debug_str     0x00000000      0x423 build\kernel\components\libc\compilers\common\ctime.o
 .comment       0x00000000       0x4a build\kernel\components\libc\compilers\common\ctime.o
 .debug_frame   0x00000000      0x208 build\kernel\components\libc\compilers\common\ctime.o
 .ARM.attributes
                0x00000000       0x2d build\kernel\components\libc\compilers\common\ctime.o
 .text          0x00000000        0x0 build\kernel\components\libc\compilers\common\cctype.o
 .data          0x00000000        0x0 build\kernel\components\libc\compilers\common\cctype.o
 .bss           0x00000000        0x0 build\kernel\components\libc\compilers\common\cctype.o
 .text.isascii  0x00000000        0xc build\kernel\components\libc\compilers\common\cctype.o
 .text.toascii  0x00000000        0x8 build\kernel\components\libc\compilers\common\cctype.o
 .debug_info    0x00000000       0xdc build\kernel\components\libc\compilers\common\cctype.o
 .debug_abbrev  0x00000000       0x7a build\kernel\components\libc\compilers\common\cctype.o
 .debug_loc     0x00000000       0x4a build\kernel\components\libc\compilers\common\cctype.o
 .debug_aranges
                0x00000000       0x28 build\kernel\components\libc\compilers\common\cctype.o
 .debug_ranges  0x00000000       0x18 build\kernel\components\libc\compilers\common\cctype.o
 .debug_line    0x00000000       0x86 build\kernel\components\libc\compilers\common\cctype.o
 .debug_str     0x00000000      0x19b build\kernel\components\libc\compilers\common\cctype.o
 .comment       0x00000000       0x4a build\kernel\components\libc\compilers\common\cctype.o
 .debug_frame   0x00000000       0x30 build\kernel\components\libc\compilers\common\cctype.o
 .ARM.attributes
                0x00000000       0x2d build\kernel\components\libc\compilers\common\cctype.o
 .text          0x00000000        0x0 build\kernel\components\libc\compilers\common\cstring.o
 .data          0x00000000        0x0 build\kernel\components\libc\compilers\common\cstring.o
 .bss           0x00000000        0x0 build\kernel\components\libc\compilers\common\cstring.o
 .text.bzero    0x00000000        0x8 build\kernel\components\libc\compilers\common\cstring.o
 .text.bcopy    0x00000000        0xc build\kernel\components\libc\compilers\common\cstring.o
 .text.bcmp     0x00000000        0x4 build\kernel\components\libc\compilers\common\cstring.o
 .text.explicit_bzero
                0x00000000       0x14 build\kernel\components\libc\compilers\common\cstring.o
 .text.index    0x00000000        0x4 build\kernel\components\libc\compilers\common\cstring.o
 .text.rindex   0x00000000        0x4 build\kernel\components\libc\compilers\common\cstring.o
 .text.ffs      0x00000000       0x1c build\kernel\components\libc\compilers\common\cstring.o
 .text.ffsl     0x00000000       0x1c build\kernel\components\libc\compilers\common\cstring.o
 .text.ffsll    0x00000000       0x2c build\kernel\components\libc\compilers\common\cstring.o
 .text.memrchr  0x00000000       0x2c build\kernel\components\libc\compilers\common\cstring.o
 .text.strchrnul
                0x00000000       0x14 build\kernel\components\libc\compilers\common\cstring.o
 .text.strcasecmp
                0x00000000       0x40 build\kernel\components\libc\compilers\common\cstring.o
 .text.strncasecmp
                0x00000000       0x50 build\kernel\components\libc\compilers\common\cstring.o
 .text.strdup   0x00000000       0x20 build\kernel\components\libc\compilers\common\cstring.o
 .text.strndup  0x00000000       0x44 build\kernel\components\libc\compilers\common\cstring.o
 .text.strtok_r
                0x00000000       0x58 build\kernel\components\libc\compilers\common\cstring.o
 .text          0x00000000        0x0 build\kernel\components\libc\compilers\common\cstdio.o
 .data          0x00000000        0x0 build\kernel\components\libc\compilers\common\cstdio.o
 .bss           0x00000000        0x0 build\kernel\components\libc\compilers\common\cstdio.o
 .debug_info    0x00000000       0x72 build\kernel\components\libc\compilers\common\cstdio.o
 .debug_abbrev  0x00000000       0x26 build\kernel\components\libc\compilers\common\cstdio.o
 .debug_aranges
                0x00000000       0x18 build\kernel\components\libc\compilers\common\cstdio.o
 .debug_line    0x00000000       0x1d build\kernel\components\libc\compilers\common\cstdio.o
 .debug_str     0x00000000      0x18b build\kernel\components\libc\compilers\common\cstdio.o
 .comment       0x00000000       0x4a build\kernel\components\libc\compilers\common\cstdio.o
 .ARM.attributes
                0x00000000       0x2d build\kernel\components\libc\compilers\common\cstdio.o
 .text          0x00000000        0x0 build\kernel\components\libc\compilers\newlib\syscalls.o
 .data          0x00000000        0x0 build\kernel\components\libc\compilers\newlib\syscalls.o
 .bss           0x00000000        0x0 build\kernel\components\libc\compilers\newlib\syscalls.o
 .text._malloc_r
                0x00000000       0x14 build\kernel\components\libc\compilers\newlib\syscalls.o
 .text._realloc_r
                0x00000000       0x18 build\kernel\components\libc\compilers\newlib\syscalls.o
 .text._calloc_r
                0x00000000       0x18 build\kernel\components\libc\compilers\newlib\syscalls.o
 .text._free_r  0x00000000        0x8 build\kernel\components\libc\compilers\newlib\syscalls.o
 .text._getpid_r
                0x00000000        0x4 build\kernel\components\libc\compilers\newlib\syscalls.o
 .text._close_r
                0x00000000        0x8 build\kernel\components\libc\compilers\newlib\syscalls.o
 .text._execve_r
                0x00000000        0xc build\kernel\components\libc\compilers\newlib\syscalls.o
 .text._fcntl_r
                0x00000000        0xc build\kernel\components\libc\compilers\newlib\syscalls.o
 .text._fork_r  0x00000000        0xc build\kernel\components\libc\compilers\newlib\syscalls.o
 .text._fstat_r
                0x00000000        0xc build\kernel\components\libc\compilers\newlib\syscalls.o
 .text._isatty_r
                0x00000000        0xc build\kernel\components\libc\compilers\newlib\syscalls.o
 .text._kill_r  0x00000000        0xc build\kernel\components\libc\compilers\newlib\syscalls.o
 .text._link_r  0x00000000        0xc build\kernel\components\libc\compilers\newlib\syscalls.o
 .text._wait_r  0x00000000        0xc build\kernel\components\libc\compilers\newlib\syscalls.o
 .text.umask    0x00000000        0x4 build\kernel\components\libc\compilers\newlib\syscalls.o
 .text.flock    0x00000000        0x4 build\kernel\components\libc\compilers\newlib\syscalls.o
 .text._lseek_r
                0x00000000        0xc build\kernel\components\libc\compilers\newlib\syscalls.o
 .text._mkdir_r
                0x00000000        0x8 build\kernel\components\libc\compilers\newlib\syscalls.o
 .text._open_r  0x00000000        0xc build\kernel\components\libc\compilers\newlib\syscalls.o
 .rodata._read_r.str1.4
                0x00000000       0x5e build\kernel\components\libc\compilers\newlib\syscalls.o
 .text._read_r  0x00000000       0x54 build\kernel\components\libc\compilers\newlib\syscalls.o
 .text._rename_r
                0x00000000        0x8 build\kernel\components\libc\compilers\newlib\syscalls.o
 .text._stat_r  0x00000000        0x8 build\kernel\components\libc\compilers\newlib\syscalls.o
 .text._unlink_r
                0x00000000        0x8 build\kernel\components\libc\compilers\newlib\syscalls.o
 .text._write_r
                0x00000000       0x40 build\kernel\components\libc\compilers\newlib\syscalls.o
 .text._exit    0x00000000        0x8 build\kernel\components\libc\compilers\newlib\syscalls.o
 .rodata.__func__.0
                0x00000000        0x8 build\kernel\components\libc\compilers\newlib\syscalls.o
 .text          0x00000000        0x0 libraries\STM32F1xx_HAL\STM32F1xx_HAL_Driver\Src\stm32f1xx_hal_rcc_ex.o
 .data          0x00000000        0x0 libraries\STM32F1xx_HAL\STM32F1xx_HAL_Driver\Src\stm32f1xx_hal_rcc_ex.o
 .bss           0x00000000        0x0 libraries\STM32F1xx_HAL\STM32F1xx_HAL_Driver\Src\stm32f1xx_hal_rcc_ex.o
 .text.HAL_RCCEx_GetPeriphCLKConfig
                0x00000000       0x24 libraries\STM32F1xx_HAL\STM32F1xx_HAL_Driver\Src\stm32f1xx_hal_rcc_ex.o
 .rodata.HAL_RCCEx_GetPeriphCLKFreq.str1.4
                0x00000000       0x11 libraries\STM32F1xx_HAL\STM32F1xx_HAL_Driver\Src\stm32f1xx_hal_rcc_ex.o
 .text.HAL_RCCEx_GetPeriphCLKFreq
                0x00000000       0xf4 libraries\STM32F1xx_HAL\STM32F1xx_HAL_Driver\Src\stm32f1xx_hal_rcc_ex.o
 .text          0x00000000        0x0 libraries\STM32F1xx_HAL\STM32F1xx_HAL_Driver\Src\stm32f1xx_hal_cortex.o
 .data          0x00000000        0x0 libraries\STM32F1xx_HAL\STM32F1xx_HAL_Driver\Src\stm32f1xx_hal_cortex.o
 .bss           0x00000000        0x0 libraries\STM32F1xx_HAL\STM32F1xx_HAL_Driver\Src\stm32f1xx_hal_cortex.o
 .text.HAL_NVIC_SystemReset
                0x00000000       0x24 libraries\STM32F1xx_HAL\STM32F1xx_HAL_Driver\Src\stm32f1xx_hal_cortex.o
 .text.HAL_NVIC_GetPriorityGrouping
                0x00000000       0x10 libraries\STM32F1xx_HAL\STM32F1xx_HAL_Driver\Src\stm32f1xx_hal_cortex.o
 .text.HAL_NVIC_GetPriority
                0x00000000       0x68 libraries\STM32F1xx_HAL\STM32F1xx_HAL_Driver\Src\stm32f1xx_hal_cortex.o
 .text.HAL_NVIC_SetPendingIRQ
                0x00000000       0x20 libraries\STM32F1xx_HAL\STM32F1xx_HAL_Driver\Src\stm32f1xx_hal_cortex.o
 .text.HAL_NVIC_GetPendingIRQ
                0x00000000       0x24 libraries\STM32F1xx_HAL\STM32F1xx_HAL_Driver\Src\stm32f1xx_hal_cortex.o
 .text.HAL_NVIC_ClearPendingIRQ
                0x00000000       0x20 libraries\STM32F1xx_HAL\STM32F1xx_HAL_Driver\Src\stm32f1xx_hal_cortex.o
 .text.HAL_NVIC_GetActive
                0x00000000       0x24 libraries\STM32F1xx_HAL\STM32F1xx_HAL_Driver\Src\stm32f1xx_hal_cortex.o
 .text.HAL_SYSTICK_CLKSourceConfig
                0x00000000       0x18 libraries\STM32F1xx_HAL\STM32F1xx_HAL_Driver\Src\stm32f1xx_hal_cortex.o
 .text.HAL_SYSTICK_Callback
                0x00000000        0x4 libraries\STM32F1xx_HAL\STM32F1xx_HAL_Driver\Src\stm32f1xx_hal_cortex.o
 .text.HAL_SYSTICK_IRQHandler
                0x00000000        0x8 libraries\STM32F1xx_HAL\STM32F1xx_HAL_Driver\Src\stm32f1xx_hal_cortex.o
 .text          0x00000000        0x0 libraries\STM32F1xx_HAL\STM32F1xx_HAL_Driver\Src\stm32f1xx_hal_gpio_ex.o
 .data          0x00000000        0x0 libraries\STM32F1xx_HAL\STM32F1xx_HAL_Driver\Src\stm32f1xx_hal_gpio_ex.o
 .bss           0x00000000        0x0 libraries\STM32F1xx_HAL\STM32F1xx_HAL_Driver\Src\stm32f1xx_hal_gpio_ex.o
 .text.HAL_GPIOEx_ConfigEventout
                0x00000000       0x14 libraries\STM32F1xx_HAL\STM32F1xx_HAL_Driver\Src\stm32f1xx_hal_gpio_ex.o
 .text.HAL_GPIOEx_EnableEventout
                0x00000000       0x10 libraries\STM32F1xx_HAL\STM32F1xx_HAL_Driver\Src\stm32f1xx_hal_gpio_ex.o
 .text.HAL_GPIOEx_DisableEventout
                0x00000000       0x10 libraries\STM32F1xx_HAL\STM32F1xx_HAL_Driver\Src\stm32f1xx_hal_gpio_ex.o
 .debug_info    0x00000000      0x170 libraries\STM32F1xx_HAL\STM32F1xx_HAL_Driver\Src\stm32f1xx_hal_gpio_ex.o
 .debug_abbrev  0x00000000       0xc8 libraries\STM32F1xx_HAL\STM32F1xx_HAL_Driver\Src\stm32f1xx_hal_gpio_ex.o
 .debug_aranges
                0x00000000       0x30 libraries\STM32F1xx_HAL\STM32F1xx_HAL_Driver\Src\stm32f1xx_hal_gpio_ex.o
 .debug_ranges  0x00000000       0x20 libraries\STM32F1xx_HAL\STM32F1xx_HAL_Driver\Src\stm32f1xx_hal_gpio_ex.o
 .debug_line    0x00000000      0x1ec libraries\STM32F1xx_HAL\STM32F1xx_HAL_Driver\Src\stm32f1xx_hal_gpio_ex.o
 .debug_str     0x00000000      0x24b libraries\STM32F1xx_HAL\STM32F1xx_HAL_Driver\Src\stm32f1xx_hal_gpio_ex.o
 .comment       0x00000000       0x4a libraries\STM32F1xx_HAL\STM32F1xx_HAL_Driver\Src\stm32f1xx_hal_gpio_ex.o
 .debug_frame   0x00000000       0x40 libraries\STM32F1xx_HAL\STM32F1xx_HAL_Driver\Src\stm32f1xx_hal_gpio_ex.o
 .ARM.attributes
                0x00000000       0x2d libraries\STM32F1xx_HAL\STM32F1xx_HAL_Driver\Src\stm32f1xx_hal_gpio_ex.o
 .text          0x00000000        0x0 libraries\STM32F1xx_HAL\STM32F1xx_HAL_Driver\Src\stm32f1xx_hal_rcc.o
 .data          0x00000000        0x0 libraries\STM32F1xx_HAL\STM32F1xx_HAL_Driver\Src\stm32f1xx_hal_rcc.o
 .bss           0x00000000        0x0 libraries\STM32F1xx_HAL\STM32F1xx_HAL_Driver\Src\stm32f1xx_hal_rcc.o
 .text.HAL_RCC_DeInit
                0x00000000       0xe0 libraries\STM32F1xx_HAL\STM32F1xx_HAL_Driver\Src\stm32f1xx_hal_rcc.o
 .text.HAL_RCC_MCOConfig
                0x00000000       0x4c libraries\STM32F1xx_HAL\STM32F1xx_HAL_Driver\Src\stm32f1xx_hal_rcc.o
 .text.HAL_RCC_EnableCSS
                0x00000000        0xc libraries\STM32F1xx_HAL\STM32F1xx_HAL_Driver\Src\stm32f1xx_hal_rcc.o
 .text.HAL_RCC_DisableCSS
                0x00000000        0xc libraries\STM32F1xx_HAL\STM32F1xx_HAL_Driver\Src\stm32f1xx_hal_rcc.o
 .text.HAL_RCC_GetHCLKFreq
                0x00000000        0xc libraries\STM32F1xx_HAL\STM32F1xx_HAL_Driver\Src\stm32f1xx_hal_rcc.o
 .text.HAL_RCC_GetOscConfig
                0x00000000       0x84 libraries\STM32F1xx_HAL\STM32F1xx_HAL_Driver\Src\stm32f1xx_hal_rcc.o
 .text.HAL_RCC_GetClockConfig
                0x00000000       0x40 libraries\STM32F1xx_HAL\STM32F1xx_HAL_Driver\Src\stm32f1xx_hal_rcc.o
 .text.HAL_RCC_CSSCallback
                0x00000000        0x4 libraries\STM32F1xx_HAL\STM32F1xx_HAL_Driver\Src\stm32f1xx_hal_rcc.o
 .text.HAL_RCC_NMI_IRQHandler
                0x00000000       0x1c libraries\STM32F1xx_HAL\STM32F1xx_HAL_Driver\Src\stm32f1xx_hal_rcc.o
 .text          0x00000000        0x0 libraries\STM32F1xx_HAL\STM32F1xx_HAL_Driver\Src\stm32f1xx_hal_pwr.o
 .data          0x00000000        0x0 libraries\STM32F1xx_HAL\STM32F1xx_HAL_Driver\Src\stm32f1xx_hal_pwr.o
 .bss           0x00000000        0x0 libraries\STM32F1xx_HAL\STM32F1xx_HAL_Driver\Src\stm32f1xx_hal_pwr.o
 .text.PWR_OverloadWfe
                0x00000000        0x8 libraries\STM32F1xx_HAL\STM32F1xx_HAL_Driver\Src\stm32f1xx_hal_pwr.o
 .text.HAL_PWR_DeInit
                0x00000000       0x18 libraries\STM32F1xx_HAL\STM32F1xx_HAL_Driver\Src\stm32f1xx_hal_pwr.o
 .text.HAL_PWR_EnableBkUpAccess
                0x00000000        0xc libraries\STM32F1xx_HAL\STM32F1xx_HAL_Driver\Src\stm32f1xx_hal_pwr.o
 .text.HAL_PWR_DisableBkUpAccess
                0x00000000        0xc libraries\STM32F1xx_HAL\STM32F1xx_HAL_Driver\Src\stm32f1xx_hal_pwr.o
 .text.HAL_PWR_ConfigPVD
                0x00000000       0x78 libraries\STM32F1xx_HAL\STM32F1xx_HAL_Driver\Src\stm32f1xx_hal_pwr.o
 .text.HAL_PWR_EnablePVD
                0x00000000        0xc libraries\STM32F1xx_HAL\STM32F1xx_HAL_Driver\Src\stm32f1xx_hal_pwr.o
 .text.HAL_PWR_DisablePVD
                0x00000000        0xc libraries\STM32F1xx_HAL\STM32F1xx_HAL_Driver\Src\stm32f1xx_hal_pwr.o
 .text.HAL_PWR_EnableWakeUpPin
                0x00000000       0x18 libraries\STM32F1xx_HAL\STM32F1xx_HAL_Driver\Src\stm32f1xx_hal_pwr.o
 .text.HAL_PWR_DisableWakeUpPin
                0x00000000       0x18 libraries\STM32F1xx_HAL\STM32F1xx_HAL_Driver\Src\stm32f1xx_hal_pwr.o
 .text.HAL_PWR_EnterSLEEPMode
                0x00000000       0x20 libraries\STM32F1xx_HAL\STM32F1xx_HAL_Driver\Src\stm32f1xx_hal_pwr.o
 .text.HAL_PWR_EnterSTOPMode
                0x00000000       0x48 libraries\STM32F1xx_HAL\STM32F1xx_HAL_Driver\Src\stm32f1xx_hal_pwr.o
 .text.HAL_PWR_EnterSTANDBYMode
                0x00000000       0x20 libraries\STM32F1xx_HAL\STM32F1xx_HAL_Driver\Src\stm32f1xx_hal_pwr.o
 .text.HAL_PWR_EnableSleepOnExit
                0x00000000       0x10 libraries\STM32F1xx_HAL\STM32F1xx_HAL_Driver\Src\stm32f1xx_hal_pwr.o
 .text.HAL_PWR_DisableSleepOnExit
                0x00000000       0x10 libraries\STM32F1xx_HAL\STM32F1xx_HAL_Driver\Src\stm32f1xx_hal_pwr.o
 .text.HAL_PWR_EnableSEVOnPend
                0x00000000       0x10 libraries\STM32F1xx_HAL\STM32F1xx_HAL_Driver\Src\stm32f1xx_hal_pwr.o
 .text.HAL_PWR_DisableSEVOnPend
                0x00000000       0x10 libraries\STM32F1xx_HAL\STM32F1xx_HAL_Driver\Src\stm32f1xx_hal_pwr.o
 .text.HAL_PWR_PVDCallback
                0x00000000        0x4 libraries\STM32F1xx_HAL\STM32F1xx_HAL_Driver\Src\stm32f1xx_hal_pwr.o
 .text.HAL_PWR_PVD_IRQHandler
                0x00000000       0x1c libraries\STM32F1xx_HAL\STM32F1xx_HAL_Driver\Src\stm32f1xx_hal_pwr.o
 .debug_info    0x00000000      0x743 libraries\STM32F1xx_HAL\STM32F1xx_HAL_Driver\Src\stm32f1xx_hal_pwr.o
 .debug_abbrev  0x00000000      0x1fc libraries\STM32F1xx_HAL\STM32F1xx_HAL_Driver\Src\stm32f1xx_hal_pwr.o
 .debug_loc     0x00000000      0x14f libraries\STM32F1xx_HAL\STM32F1xx_HAL_Driver\Src\stm32f1xx_hal_pwr.o
 .debug_aranges
                0x00000000       0xa8 libraries\STM32F1xx_HAL\STM32F1xx_HAL_Driver\Src\stm32f1xx_hal_pwr.o
 .debug_ranges  0x00000000       0x98 libraries\STM32F1xx_HAL\STM32F1xx_HAL_Driver\Src\stm32f1xx_hal_pwr.o
 .debug_line    0x00000000      0x4e2 libraries\STM32F1xx_HAL\STM32F1xx_HAL_Driver\Src\stm32f1xx_hal_pwr.o
 .debug_str     0x00000000      0x48f libraries\STM32F1xx_HAL\STM32F1xx_HAL_Driver\Src\stm32f1xx_hal_pwr.o
 .comment       0x00000000       0x4a libraries\STM32F1xx_HAL\STM32F1xx_HAL_Driver\Src\stm32f1xx_hal_pwr.o
 .debug_frame   0x00000000      0x150 libraries\STM32F1xx_HAL\STM32F1xx_HAL_Driver\Src\stm32f1xx_hal_pwr.o
 .ARM.attributes
                0x00000000       0x2d libraries\STM32F1xx_HAL\STM32F1xx_HAL_Driver\Src\stm32f1xx_hal_pwr.o
 .text          0x00000000        0x0 libraries\STM32F1xx_HAL\STM32F1xx_HAL_Driver\Src\stm32f1xx_hal_dma.o
 .data          0x00000000        0x0 libraries\STM32F1xx_HAL\STM32F1xx_HAL_Driver\Src\stm32f1xx_hal_dma.o
 .bss           0x00000000        0x0 libraries\STM32F1xx_HAL\STM32F1xx_HAL_Driver\Src\stm32f1xx_hal_dma.o
 .text.HAL_DMA_Start
                0x00000000       0x70 libraries\STM32F1xx_HAL\STM32F1xx_HAL_Driver\Src\stm32f1xx_hal_dma.o
 .text.HAL_DMA_PollForTransfer
                0x00000000      0x260 libraries\STM32F1xx_HAL\STM32F1xx_HAL_Driver\Src\stm32f1xx_hal_dma.o
 .text.HAL_DMA_IRQHandler
                0x00000000      0x128 libraries\STM32F1xx_HAL\STM32F1xx_HAL_Driver\Src\stm32f1xx_hal_dma.o
 .text.HAL_DMA_RegisterCallback
                0x00000000       0x44 libraries\STM32F1xx_HAL\STM32F1xx_HAL_Driver\Src\stm32f1xx_hal_dma.o
 .text.HAL_DMA_UnRegisterCallback
                0x00000000       0x64 libraries\STM32F1xx_HAL\STM32F1xx_HAL_Driver\Src\stm32f1xx_hal_dma.o
 .text.HAL_DMA_GetState
                0x00000000        0x8 libraries\STM32F1xx_HAL\STM32F1xx_HAL_Driver\Src\stm32f1xx_hal_dma.o
 .text.HAL_DMA_GetError
                0x00000000        0x4 libraries\STM32F1xx_HAL\STM32F1xx_HAL_Driver\Src\stm32f1xx_hal_dma.o
 .text          0x00000000        0x0 libraries\STM32F1xx_HAL\STM32F1xx_HAL_Driver\Src\stm32f1xx_hal_crc.o
 .data          0x00000000        0x0 libraries\STM32F1xx_HAL\STM32F1xx_HAL_Driver\Src\stm32f1xx_hal_crc.o
 .bss           0x00000000        0x0 libraries\STM32F1xx_HAL\STM32F1xx_HAL_Driver\Src\stm32f1xx_hal_crc.o
 .debug_info    0x00000000       0x6b libraries\STM32F1xx_HAL\STM32F1xx_HAL_Driver\Src\stm32f1xx_hal_crc.o
 .debug_abbrev  0x00000000       0x26 libraries\STM32F1xx_HAL\STM32F1xx_HAL_Driver\Src\stm32f1xx_hal_crc.o
 .debug_aranges
                0x00000000       0x18 libraries\STM32F1xx_HAL\STM32F1xx_HAL_Driver\Src\stm32f1xx_hal_crc.o
 .debug_line    0x00000000       0x1d libraries\STM32F1xx_HAL\STM32F1xx_HAL_Driver\Src\stm32f1xx_hal_crc.o
 .debug_str     0x00000000      0x197 libraries\STM32F1xx_HAL\STM32F1xx_HAL_Driver\Src\stm32f1xx_hal_crc.o
 .comment       0x00000000       0x4a libraries\STM32F1xx_HAL\STM32F1xx_HAL_Driver\Src\stm32f1xx_hal_crc.o
 .ARM.attributes
                0x00000000       0x2d libraries\STM32F1xx_HAL\STM32F1xx_HAL_Driver\Src\stm32f1xx_hal_crc.o
 .text          0x00000000        0x0 libraries\STM32F1xx_HAL\CMSIS\Device\ST\STM32F1xx\Source\Templates\system_stm32f1xx.o
 .data          0x00000000        0x0 libraries\STM32F1xx_HAL\CMSIS\Device\ST\STM32F1xx\Source\Templates\system_stm32f1xx.o
 .bss           0x00000000        0x0 libraries\STM32F1xx_HAL\CMSIS\Device\ST\STM32F1xx\Source\Templates\system_stm32f1xx.o
 .text.SystemCoreClockUpdate
                0x00000000       0x5c libraries\STM32F1xx_HAL\CMSIS\Device\ST\STM32F1xx\Source\Templates\system_stm32f1xx.o
 .text          0x00000000        0x0 libraries\STM32F1xx_HAL\STM32F1xx_HAL_Driver\Src\stm32f1xx_hal_uart.o
 .data          0x00000000        0x0 libraries\STM32F1xx_HAL\STM32F1xx_HAL_Driver\Src\stm32f1xx_hal_uart.o
 .bss           0x00000000        0x0 libraries\STM32F1xx_HAL\STM32F1xx_HAL_Driver\Src\stm32f1xx_hal_uart.o
 .text.UART_WaitOnFlagUntilTimeout.constprop.0
                0x00000000       0x58 libraries\STM32F1xx_HAL\STM32F1xx_HAL_Driver\Src\stm32f1xx_hal_uart.o
 .text.HAL_UART_MspInit
                0x00000000        0x4 libraries\STM32F1xx_HAL\STM32F1xx_HAL_Driver\Src\stm32f1xx_hal_uart.o
 .text.HAL_HalfDuplex_Init
                0x00000000       0x68 libraries\STM32F1xx_HAL\STM32F1xx_HAL_Driver\Src\stm32f1xx_hal_uart.o
 .text.HAL_LIN_Init
                0x00000000       0x7c libraries\STM32F1xx_HAL\STM32F1xx_HAL_Driver\Src\stm32f1xx_hal_uart.o
 .text.HAL_MultiProcessor_Init
                0x00000000       0x84 libraries\STM32F1xx_HAL\STM32F1xx_HAL_Driver\Src\stm32f1xx_hal_uart.o
 .text.HAL_UART_MspDeInit
                0x00000000        0x4 libraries\STM32F1xx_HAL\STM32F1xx_HAL_Driver\Src\stm32f1xx_hal_uart.o
 .text.HAL_UART_Transmit
                0x00000000       0xcc libraries\STM32F1xx_HAL\STM32F1xx_HAL_Driver\Src\stm32f1xx_hal_uart.o
 .text.HAL_UART_Receive
                0x00000000       0xe0 libraries\STM32F1xx_HAL\STM32F1xx_HAL_Driver\Src\stm32f1xx_hal_uart.o
 .text.HAL_UART_Transmit_IT
                0x00000000       0x40 libraries\STM32F1xx_HAL\STM32F1xx_HAL_Driver\Src\stm32f1xx_hal_uart.o
 .text.HAL_UART_Receive_IT
                0x00000000       0x54 libraries\STM32F1xx_HAL\STM32F1xx_HAL_Driver\Src\stm32f1xx_hal_uart.o
 .text.HAL_UART_DMAPause
                0x00000000       0x70 libraries\STM32F1xx_HAL\STM32F1xx_HAL_Driver\Src\stm32f1xx_hal_uart.o
 .text.HAL_UART_DMAResume
                0x00000000       0x70 libraries\STM32F1xx_HAL\STM32F1xx_HAL_Driver\Src\stm32f1xx_hal_uart.o
 .text.HAL_UART_DMAStop
                0x00000000       0x90 libraries\STM32F1xx_HAL\STM32F1xx_HAL_Driver\Src\stm32f1xx_hal_uart.o
 .text.HAL_UARTEx_ReceiveToIdle
                0x00000000      0x128 libraries\STM32F1xx_HAL\STM32F1xx_HAL_Driver\Src\stm32f1xx_hal_uart.o
 .text.HAL_UARTEx_ReceiveToIdle_IT
                0x00000000       0x78 libraries\STM32F1xx_HAL\STM32F1xx_HAL_Driver\Src\stm32f1xx_hal_uart.o
 .text.HAL_UART_Abort
                0x00000000       0x94 libraries\STM32F1xx_HAL\STM32F1xx_HAL_Driver\Src\stm32f1xx_hal_uart.o
 .text.HAL_UART_AbortTransmit
                0x00000000       0x4c libraries\STM32F1xx_HAL\STM32F1xx_HAL_Driver\Src\stm32f1xx_hal_uart.o
 .text.HAL_UART_AbortReceive
                0x00000000       0x64 libraries\STM32F1xx_HAL\STM32F1xx_HAL_Driver\Src\stm32f1xx_hal_uart.o
 .text.HAL_UART_TxCpltCallback
                0x00000000        0x4 libraries\STM32F1xx_HAL\STM32F1xx_HAL_Driver\Src\stm32f1xx_hal_uart.o
 .text.HAL_UART_RxCpltCallback
                0x00000000        0x4 libraries\STM32F1xx_HAL\STM32F1xx_HAL_Driver\Src\stm32f1xx_hal_uart.o
 .text.HAL_UART_RxHalfCpltCallback
                0x00000000        0x4 libraries\STM32F1xx_HAL\STM32F1xx_HAL_Driver\Src\stm32f1xx_hal_uart.o
 .text.HAL_UART_ErrorCallback
                0x00000000        0x4 libraries\STM32F1xx_HAL\STM32F1xx_HAL_Driver\Src\stm32f1xx_hal_uart.o
 .text.HAL_UART_AbortCpltCallback
                0x00000000        0x4 libraries\STM32F1xx_HAL\STM32F1xx_HAL_Driver\Src\stm32f1xx_hal_uart.o
 .text.HAL_UART_Abort_IT
                0x00000000       0xc0 libraries\STM32F1xx_HAL\STM32F1xx_HAL_Driver\Src\stm32f1xx_hal_uart.o
 .text.UART_DMARxAbortCallback
                0x00000000       0x30 libraries\STM32F1xx_HAL\STM32F1xx_HAL_Driver\Src\stm32f1xx_hal_uart.o
 .text.UART_DMATxAbortCallback
                0x00000000       0x30 libraries\STM32F1xx_HAL\STM32F1xx_HAL_Driver\Src\stm32f1xx_hal_uart.o
 .text.HAL_UART_AbortTransmitCpltCallback
                0x00000000        0x4 libraries\STM32F1xx_HAL\STM32F1xx_HAL_Driver\Src\stm32f1xx_hal_uart.o
 .text.HAL_UART_AbortTransmit_IT
                0x00000000       0x5c libraries\STM32F1xx_HAL\STM32F1xx_HAL_Driver\Src\stm32f1xx_hal_uart.o
 .text.UART_DMATxOnlyAbortCallback
                0x00000000       0x14 libraries\STM32F1xx_HAL\STM32F1xx_HAL_Driver\Src\stm32f1xx_hal_uart.o
 .text.HAL_UART_AbortReceiveCpltCallback
                0x00000000        0x4 libraries\STM32F1xx_HAL\STM32F1xx_HAL_Driver\Src\stm32f1xx_hal_uart.o
 .text.HAL_UART_AbortReceive_IT
                0x00000000       0x68 libraries\STM32F1xx_HAL\STM32F1xx_HAL_Driver\Src\stm32f1xx_hal_uart.o
 .text.UART_DMARxOnlyAbortCallback
                0x00000000       0x18 libraries\STM32F1xx_HAL\STM32F1xx_HAL_Driver\Src\stm32f1xx_hal_uart.o
 .text.HAL_LIN_SendBreak
                0x00000000       0x30 libraries\STM32F1xx_HAL\STM32F1xx_HAL_Driver\Src\stm32f1xx_hal_uart.o
 .text.HAL_MultiProcessor_EnterMuteMode
                0x00000000       0x30 libraries\STM32F1xx_HAL\STM32F1xx_HAL_Driver\Src\stm32f1xx_hal_uart.o
 .text.HAL_MultiProcessor_ExitMuteMode
                0x00000000       0x30 libraries\STM32F1xx_HAL\STM32F1xx_HAL_Driver\Src\stm32f1xx_hal_uart.o
 .text.HAL_HalfDuplex_EnableTransmitter
                0x00000000       0x34 libraries\STM32F1xx_HAL\STM32F1xx_HAL_Driver\Src\stm32f1xx_hal_uart.o
 .text.HAL_HalfDuplex_EnableReceiver
                0x00000000       0x34 libraries\STM32F1xx_HAL\STM32F1xx_HAL_Driver\Src\stm32f1xx_hal_uart.o
 .text.HAL_UART_GetState
                0x00000000        0xc libraries\STM32F1xx_HAL\STM32F1xx_HAL_Driver\Src\stm32f1xx_hal_uart.o
 .text.HAL_UART_GetError
                0x00000000        0x4 libraries\STM32F1xx_HAL\STM32F1xx_HAL_Driver\Src\stm32f1xx_hal_uart.o
 .text.UART_Start_Receive_IT
                0x00000000       0x3c libraries\STM32F1xx_HAL\STM32F1xx_HAL_Driver\Src\stm32f1xx_hal_uart.o
 .text.HAL_UARTEx_ReceiveToIdle_DMA
                0x00000000       0x5c libraries\STM32F1xx_HAL\STM32F1xx_HAL_Driver\Src\stm32f1xx_hal_uart.o
 .text          0x00000000        0x0 libraries\STM32F1xx_HAL\STM32F1xx_HAL_Driver\Src\stm32f1xx_hal.o
 .data          0x00000000        0x0 libraries\STM32F1xx_HAL\STM32F1xx_HAL_Driver\Src\stm32f1xx_hal.o
 .bss           0x00000000        0x0 libraries\STM32F1xx_HAL\STM32F1xx_HAL_Driver\Src\stm32f1xx_hal.o
 .text.HAL_MspInit
                0x00000000        0x4 libraries\STM32F1xx_HAL\STM32F1xx_HAL_Driver\Src\stm32f1xx_hal.o
 .text.HAL_MspDeInit
                0x00000000        0x4 libraries\STM32F1xx_HAL\STM32F1xx_HAL_Driver\Src\stm32f1xx_hal.o
 .text.HAL_DeInit
                0x00000000       0x20 libraries\STM32F1xx_HAL\STM32F1xx_HAL_Driver\Src\stm32f1xx_hal.o
 .text.HAL_InitTick
                0x00000000       0x48 libraries\STM32F1xx_HAL\STM32F1xx_HAL_Driver\Src\stm32f1xx_hal.o
 .text.HAL_IncTick
                0x00000000       0x18 libraries\STM32F1xx_HAL\STM32F1xx_HAL_Driver\Src\stm32f1xx_hal.o
 .text.HAL_GetTick
                0x00000000        0xc libraries\STM32F1xx_HAL\STM32F1xx_HAL_Driver\Src\stm32f1xx_hal.o
 .text.HAL_GetTickPrio
                0x00000000        0xc libraries\STM32F1xx_HAL\STM32F1xx_HAL_Driver\Src\stm32f1xx_hal.o
 .text.HAL_SetTickFreq
                0x00000000       0x28 libraries\STM32F1xx_HAL\STM32F1xx_HAL_Driver\Src\stm32f1xx_hal.o
 .text.HAL_GetTickFreq
                0x00000000        0xc libraries\STM32F1xx_HAL\STM32F1xx_HAL_Driver\Src\stm32f1xx_hal.o
 .text.HAL_Delay
                0x00000000       0x24 libraries\STM32F1xx_HAL\STM32F1xx_HAL_Driver\Src\stm32f1xx_hal.o
 .text.HAL_SuspendTick
                0x00000000       0x10 libraries\STM32F1xx_HAL\STM32F1xx_HAL_Driver\Src\stm32f1xx_hal.o
 .text.HAL_ResumeTick
                0x00000000       0x10 libraries\STM32F1xx_HAL\STM32F1xx_HAL_Driver\Src\stm32f1xx_hal.o
 .text.HAL_GetHalVersion
                0x00000000        0x8 libraries\STM32F1xx_HAL\STM32F1xx_HAL_Driver\Src\stm32f1xx_hal.o
 .text.HAL_GetREVID
                0x00000000        0xc libraries\STM32F1xx_HAL\STM32F1xx_HAL_Driver\Src\stm32f1xx_hal.o
 .text.HAL_GetDEVID
                0x00000000       0x10 libraries\STM32F1xx_HAL\STM32F1xx_HAL_Driver\Src\stm32f1xx_hal.o
 .text.HAL_GetUIDw0
                0x00000000        0xc libraries\STM32F1xx_HAL\STM32F1xx_HAL_Driver\Src\stm32f1xx_hal.o
 .text.HAL_GetUIDw1
                0x00000000        0xc libraries\STM32F1xx_HAL\STM32F1xx_HAL_Driver\Src\stm32f1xx_hal.o
 .text.HAL_GetUIDw2
                0x00000000        0xc libraries\STM32F1xx_HAL\STM32F1xx_HAL_Driver\Src\stm32f1xx_hal.o
 .text.HAL_DBGMCU_EnableDBGSleepMode
                0x00000000       0x10 libraries\STM32F1xx_HAL\STM32F1xx_HAL_Driver\Src\stm32f1xx_hal.o
 .text.HAL_DBGMCU_DisableDBGSleepMode
                0x00000000       0x10 libraries\STM32F1xx_HAL\STM32F1xx_HAL_Driver\Src\stm32f1xx_hal.o
 .text.HAL_DBGMCU_EnableDBGStopMode
                0x00000000       0x10 libraries\STM32F1xx_HAL\STM32F1xx_HAL_Driver\Src\stm32f1xx_hal.o
 .text.HAL_DBGMCU_DisableDBGStopMode
                0x00000000       0x10 libraries\STM32F1xx_HAL\STM32F1xx_HAL_Driver\Src\stm32f1xx_hal.o
 .text.HAL_DBGMCU_EnableDBGStandbyMode
                0x00000000       0x10 libraries\STM32F1xx_HAL\STM32F1xx_HAL_Driver\Src\stm32f1xx_hal.o
 .text.HAL_DBGMCU_DisableDBGStandbyMode
                0x00000000       0x10 libraries\STM32F1xx_HAL\STM32F1xx_HAL_Driver\Src\stm32f1xx_hal.o
 .data.uwTickFreq
                0x00000000        0x1 libraries\STM32F1xx_HAL\STM32F1xx_HAL_Driver\Src\stm32f1xx_hal.o
 .text          0x00000000        0x0 libraries\STM32F1xx_HAL\STM32F1xx_HAL_Driver\Src\stm32f1xx_hal_cec.o
 .data          0x00000000        0x0 libraries\STM32F1xx_HAL\STM32F1xx_HAL_Driver\Src\stm32f1xx_hal_cec.o
 .bss           0x00000000        0x0 libraries\STM32F1xx_HAL\STM32F1xx_HAL_Driver\Src\stm32f1xx_hal_cec.o
 .debug_info    0x00000000       0x6b libraries\STM32F1xx_HAL\STM32F1xx_HAL_Driver\Src\stm32f1xx_hal_cec.o
 .debug_abbrev  0x00000000       0x26 libraries\STM32F1xx_HAL\STM32F1xx_HAL_Driver\Src\stm32f1xx_hal_cec.o
 .debug_aranges
                0x00000000       0x18 libraries\STM32F1xx_HAL\STM32F1xx_HAL_Driver\Src\stm32f1xx_hal_cec.o
 .debug_line    0x00000000       0x1d libraries\STM32F1xx_HAL\STM32F1xx_HAL_Driver\Src\stm32f1xx_hal_cec.o
 .debug_str     0x00000000      0x197 libraries\STM32F1xx_HAL\STM32F1xx_HAL_Driver\Src\stm32f1xx_hal_cec.o
 .comment       0x00000000       0x4a libraries\STM32F1xx_HAL\STM32F1xx_HAL_Driver\Src\stm32f1xx_hal_cec.o
 .ARM.attributes
                0x00000000       0x2d libraries\STM32F1xx_HAL\STM32F1xx_HAL_Driver\Src\stm32f1xx_hal_cec.o
 .text          0x00000000        0x0 libraries\STM32F1xx_HAL\STM32F1xx_HAL_Driver\Src\stm32f1xx_hal_usart.o
 .data          0x00000000        0x0 libraries\STM32F1xx_HAL\STM32F1xx_HAL_Driver\Src\stm32f1xx_hal_usart.o
 .bss           0x00000000        0x0 libraries\STM32F1xx_HAL\STM32F1xx_HAL_Driver\Src\stm32f1xx_hal_usart.o
 .debug_info    0x00000000       0x6b libraries\STM32F1xx_HAL\STM32F1xx_HAL_Driver\Src\stm32f1xx_hal_usart.o
 .debug_abbrev  0x00000000       0x26 libraries\STM32F1xx_HAL\STM32F1xx_HAL_Driver\Src\stm32f1xx_hal_usart.o
 .debug_aranges
                0x00000000       0x18 libraries\STM32F1xx_HAL\STM32F1xx_HAL_Driver\Src\stm32f1xx_hal_usart.o
 .debug_line    0x00000000       0x1d libraries\STM32F1xx_HAL\STM32F1xx_HAL_Driver\Src\stm32f1xx_hal_usart.o
 .debug_str     0x00000000      0x199 libraries\STM32F1xx_HAL\STM32F1xx_HAL_Driver\Src\stm32f1xx_hal_usart.o
 .comment       0x00000000       0x4a libraries\STM32F1xx_HAL\STM32F1xx_HAL_Driver\Src\stm32f1xx_hal_usart.o
 .ARM.attributes
                0x00000000       0x2d libraries\STM32F1xx_HAL\STM32F1xx_HAL_Driver\Src\stm32f1xx_hal_usart.o
 .text          0x00000000        0x0 libraries\STM32F1xx_HAL\STM32F1xx_HAL_Driver\Src\stm32f1xx_hal_gpio.o
 .data          0x00000000        0x0 libraries\STM32F1xx_HAL\STM32F1xx_HAL_Driver\Src\stm32f1xx_hal_gpio.o
 .bss           0x00000000        0x0 libraries\STM32F1xx_HAL\STM32F1xx_HAL_Driver\Src\stm32f1xx_hal_gpio.o
 .text.HAL_GPIO_TogglePin
                0x00000000       0x14 libraries\STM32F1xx_HAL\STM32F1xx_HAL_Driver\Src\stm32f1xx_hal_gpio.o
 .text.HAL_GPIO_LockPin
                0x00000000       0x2c libraries\STM32F1xx_HAL\STM32F1xx_HAL_Driver\Src\stm32f1xx_hal_gpio.o
 .text.HAL_GPIO_EXTI_Callback
                0x00000000        0x4 libraries\STM32F1xx_HAL\STM32F1xx_HAL_Driver\Src\stm32f1xx_hal_gpio.o
 .text          0x00000000        0x0 libraries\HAL_Drivers\drv_gpio.o
 .data          0x00000000        0x0 libraries\HAL_Drivers\drv_gpio.o
 .bss           0x00000000        0x0 libraries\HAL_Drivers\drv_gpio.o
 .text          0x00000000        0x0 libraries\HAL_Drivers\drv_usart.o
 .data          0x00000000        0x0 libraries\HAL_Drivers\drv_usart.o
 .bss           0x00000000        0x0 libraries\HAL_Drivers\drv_usart.o
 .text.stm32_uart_get_mask
                0x00000000       0x24 libraries\HAL_Drivers\drv_usart.o
 .text          0x00000000        0x0 libraries\HAL_Drivers\drv_common.o
 .data          0x00000000        0x0 libraries\HAL_Drivers\drv_common.o
 .bss           0x00000000        0x0 libraries\HAL_Drivers\drv_common.o
 .text.rt_hw_systick_init
                0x00000000       0x34 libraries\HAL_Drivers\drv_common.o
 .text.HAL_IncTick
                0x00000000       0x18 libraries\HAL_Drivers\drv_common.o
 .text.HAL_SuspendTick
                0x00000000        0x4 libraries\HAL_Drivers\drv_common.o
 .text.HAL_ResumeTick
                0x00000000        0x4 libraries\HAL_Drivers\drv_common.o
 .text.HAL_Delay
                0x00000000       0x68 libraries\HAL_Drivers\drv_common.o
 .text.rt_hw_us_delay
                0x00000000       0x40 libraries\HAL_Drivers\drv_common.o
 .text          0x00000000        0x0 g:/rt-threadstudio/platform/env_released/env/tools/gnu_gcc/arm_gcc/mingw/bin/../lib/gcc/arm-none-eabi/10.3.1/../../../../arm-none-eabi/lib/thumb/v7-m/nofp\libc.a(lib_a-atoi.o)
 .data          0x00000000        0x0 g:/rt-threadstudio/platform/env_released/env/tools/gnu_gcc/arm_gcc/mingw/bin/../lib/gcc/arm-none-eabi/10.3.1/../../../../arm-none-eabi/lib/thumb/v7-m/nofp\libc.a(lib_a-atoi.o)
 .bss           0x00000000        0x0 g:/rt-threadstudio/platform/env_released/env/tools/gnu_gcc/arm_gcc/mingw/bin/../lib/gcc/arm-none-eabi/10.3.1/../../../../arm-none-eabi/lib/thumb/v7-m/nofp\libc.a(lib_a-atoi.o)
 .text._atoi_r  0x00000000        0x8 g:/rt-threadstudio/platform/env_released/env/tools/gnu_gcc/arm_gcc/mingw/bin/../lib/gcc/arm-none-eabi/10.3.1/../../../../arm-none-eabi/lib/thumb/v7-m/nofp\libc.a(lib_a-atoi.o)
 .text          0x00000000        0x0 g:/rt-threadstudio/platform/env_released/env/tools/gnu_gcc/arm_gcc/mingw/bin/../lib/gcc/arm-none-eabi/10.3.1/../../../../arm-none-eabi/lib/thumb/v7-m/nofp\libc.a(lib_a-ctype_.o)
 .data          0x00000000        0x0 g:/rt-threadstudio/platform/env_released/env/tools/gnu_gcc/arm_gcc/mingw/bin/../lib/gcc/arm-none-eabi/10.3.1/../../../../arm-none-eabi/lib/thumb/v7-m/nofp\libc.a(lib_a-ctype_.o)
 .bss           0x00000000        0x0 g:/rt-threadstudio/platform/env_released/env/tools/gnu_gcc/arm_gcc/mingw/bin/../lib/gcc/arm-none-eabi/10.3.1/../../../../arm-none-eabi/lib/thumb/v7-m/nofp\libc.a(lib_a-ctype_.o)
 .text          0x00000000        0x0 g:/rt-threadstudio/platform/env_released/env/tools/gnu_gcc/arm_gcc/mingw/bin/../lib/gcc/arm-none-eabi/10.3.1/../../../../arm-none-eabi/lib/thumb/v7-m/nofp\libc.a(lib_a-exit.o)
 .data          0x00000000        0x0 g:/rt-threadstudio/platform/env_released/env/tools/gnu_gcc/arm_gcc/mingw/bin/../lib/gcc/arm-none-eabi/10.3.1/../../../../arm-none-eabi/lib/thumb/v7-m/nofp\libc.a(lib_a-exit.o)
 .bss           0x00000000        0x0 g:/rt-threadstudio/platform/env_released/env/tools/gnu_gcc/arm_gcc/mingw/bin/../lib/gcc/arm-none-eabi/10.3.1/../../../../arm-none-eabi/lib/thumb/v7-m/nofp\libc.a(lib_a-exit.o)
 .text.exit     0x00000000       0x20 g:/rt-threadstudio/platform/env_released/env/tools/gnu_gcc/arm_gcc/mingw/bin/../lib/gcc/arm-none-eabi/10.3.1/../../../../arm-none-eabi/lib/thumb/v7-m/nofp\libc.a(lib_a-exit.o)
 .debug_frame   0x00000000       0x28 g:/rt-threadstudio/platform/env_released/env/tools/gnu_gcc/arm_gcc/mingw/bin/../lib/gcc/arm-none-eabi/10.3.1/../../../../arm-none-eabi/lib/thumb/v7-m/nofp\libc.a(lib_a-exit.o)
 .ARM.attributes
                0x00000000       0x2d g:/rt-threadstudio/platform/env_released/env/tools/gnu_gcc/arm_gcc/mingw/bin/../lib/gcc/arm-none-eabi/10.3.1/../../../../arm-none-eabi/lib/thumb/v7-m/nofp\libc.a(lib_a-exit.o)
 .text          0x00000000        0x0 g:/rt-threadstudio/platform/env_released/env/tools/gnu_gcc/arm_gcc/mingw/bin/../lib/gcc/arm-none-eabi/10.3.1/../../../../arm-none-eabi/lib/thumb/v7-m/nofp\libc.a(lib_a-impure.o)
 .data          0x00000000        0x0 g:/rt-threadstudio/platform/env_released/env/tools/gnu_gcc/arm_gcc/mingw/bin/../lib/gcc/arm-none-eabi/10.3.1/../../../../arm-none-eabi/lib/thumb/v7-m/nofp\libc.a(lib_a-impure.o)
 .bss           0x00000000        0x0 g:/rt-threadstudio/platform/env_released/env/tools/gnu_gcc/arm_gcc/mingw/bin/../lib/gcc/arm-none-eabi/10.3.1/../../../../arm-none-eabi/lib/thumb/v7-m/nofp\libc.a(lib_a-impure.o)
 .text          0x00000000        0x0 g:/rt-threadstudio/platform/env_released/env/tools/gnu_gcc/arm_gcc/mingw/bin/../lib/gcc/arm-none-eabi/10.3.1/../../../../arm-none-eabi/lib/thumb/v7-m/nofp\libc.a(lib_a-malloc.o)
 .data          0x00000000        0x0 g:/rt-threadstudio/platform/env_released/env/tools/gnu_gcc/arm_gcc/mingw/bin/../lib/gcc/arm-none-eabi/10.3.1/../../../../arm-none-eabi/lib/thumb/v7-m/nofp\libc.a(lib_a-malloc.o)
 .bss           0x00000000        0x0 g:/rt-threadstudio/platform/env_released/env/tools/gnu_gcc/arm_gcc/mingw/bin/../lib/gcc/arm-none-eabi/10.3.1/../../../../arm-none-eabi/lib/thumb/v7-m/nofp\libc.a(lib_a-malloc.o)
 .text.malloc   0x00000000       0x10 g:/rt-threadstudio/platform/env_released/env/tools/gnu_gcc/arm_gcc/mingw/bin/../lib/gcc/arm-none-eabi/10.3.1/../../../../arm-none-eabi/lib/thumb/v7-m/nofp\libc.a(lib_a-malloc.o)
 .text.free     0x00000000       0x10 g:/rt-threadstudio/platform/env_released/env/tools/gnu_gcc/arm_gcc/mingw/bin/../lib/gcc/arm-none-eabi/10.3.1/../../../../arm-none-eabi/lib/thumb/v7-m/nofp\libc.a(lib_a-malloc.o)
 .debug_frame   0x00000000       0x30 g:/rt-threadstudio/platform/env_released/env/tools/gnu_gcc/arm_gcc/mingw/bin/../lib/gcc/arm-none-eabi/10.3.1/../../../../arm-none-eabi/lib/thumb/v7-m/nofp\libc.a(lib_a-malloc.o)
 .ARM.attributes
                0x00000000       0x2d g:/rt-threadstudio/platform/env_released/env/tools/gnu_gcc/arm_gcc/mingw/bin/../lib/gcc/arm-none-eabi/10.3.1/../../../../arm-none-eabi/lib/thumb/v7-m/nofp\libc.a(lib_a-malloc.o)
 .text          0x00000000        0x0 g:/rt-threadstudio/platform/env_released/env/tools/gnu_gcc/arm_gcc/mingw/bin/../lib/gcc/arm-none-eabi/10.3.1/../../../../arm-none-eabi/lib/thumb/v7-m/nofp\libc.a(lib_a-memcmp.o)
 .data          0x00000000        0x0 g:/rt-threadstudio/platform/env_released/env/tools/gnu_gcc/arm_gcc/mingw/bin/../lib/gcc/arm-none-eabi/10.3.1/../../../../arm-none-eabi/lib/thumb/v7-m/nofp\libc.a(lib_a-memcmp.o)
 .bss           0x00000000        0x0 g:/rt-threadstudio/platform/env_released/env/tools/gnu_gcc/arm_gcc/mingw/bin/../lib/gcc/arm-none-eabi/10.3.1/../../../../arm-none-eabi/lib/thumb/v7-m/nofp\libc.a(lib_a-memcmp.o)
 .data          0x00000000        0x0 g:/rt-threadstudio/platform/env_released/env/tools/gnu_gcc/arm_gcc/mingw/bin/../lib/gcc/arm-none-eabi/10.3.1/../../../../arm-none-eabi/lib/thumb/v7-m/nofp\libc.a(lib_a-memcpy.o)
 .bss           0x00000000        0x0 g:/rt-threadstudio/platform/env_released/env/tools/gnu_gcc/arm_gcc/mingw/bin/../lib/gcc/arm-none-eabi/10.3.1/../../../../arm-none-eabi/lib/thumb/v7-m/nofp\libc.a(lib_a-memcpy.o)
 .text          0x00000000        0x0 g:/rt-threadstudio/platform/env_released/env/tools/gnu_gcc/arm_gcc/mingw/bin/../lib/gcc/arm-none-eabi/10.3.1/../../../../arm-none-eabi/lib/thumb/v7-m/nofp\libc.a(lib_a-memset.o)
 .data          0x00000000        0x0 g:/rt-threadstudio/platform/env_released/env/tools/gnu_gcc/arm_gcc/mingw/bin/../lib/gcc/arm-none-eabi/10.3.1/../../../../arm-none-eabi/lib/thumb/v7-m/nofp\libc.a(lib_a-memset.o)
 .bss           0x00000000        0x0 g:/rt-threadstudio/platform/env_released/env/tools/gnu_gcc/arm_gcc/mingw/bin/../lib/gcc/arm-none-eabi/10.3.1/../../../../arm-none-eabi/lib/thumb/v7-m/nofp\libc.a(lib_a-memset.o)
 .text          0x00000000        0x0 g:/rt-threadstudio/platform/env_released/env/tools/gnu_gcc/arm_gcc/mingw/bin/../lib/gcc/arm-none-eabi/10.3.1/../../../../arm-none-eabi/lib/thumb/v7-m/nofp\libc.a(lib_a-strchr.o)
 .data          0x00000000        0x0 g:/rt-threadstudio/platform/env_released/env/tools/gnu_gcc/arm_gcc/mingw/bin/../lib/gcc/arm-none-eabi/10.3.1/../../../../arm-none-eabi/lib/thumb/v7-m/nofp\libc.a(lib_a-strchr.o)
 .bss           0x00000000        0x0 g:/rt-threadstudio/platform/env_released/env/tools/gnu_gcc/arm_gcc/mingw/bin/../lib/gcc/arm-none-eabi/10.3.1/../../../../arm-none-eabi/lib/thumb/v7-m/nofp\libc.a(lib_a-strchr.o)
 .data          0x00000000        0x0 g:/rt-threadstudio/platform/env_released/env/tools/gnu_gcc/arm_gcc/mingw/bin/../lib/gcc/arm-none-eabi/10.3.1/../../../../arm-none-eabi/lib/thumb/v7-m/nofp\libc.a(lib_a-strcmp.o)
 .bss           0x00000000        0x0 g:/rt-threadstudio/platform/env_released/env/tools/gnu_gcc/arm_gcc/mingw/bin/../lib/gcc/arm-none-eabi/10.3.1/../../../../arm-none-eabi/lib/thumb/v7-m/nofp\libc.a(lib_a-strcmp.o)
 .text          0x00000000        0x0 g:/rt-threadstudio/platform/env_released/env/tools/gnu_gcc/arm_gcc/mingw/bin/../lib/gcc/arm-none-eabi/10.3.1/../../../../arm-none-eabi/lib/thumb/v7-m/nofp\libc.a(lib_a-strcpy.o)
 .data          0x00000000        0x0 g:/rt-threadstudio/platform/env_released/env/tools/gnu_gcc/arm_gcc/mingw/bin/../lib/gcc/arm-none-eabi/10.3.1/../../../../arm-none-eabi/lib/thumb/v7-m/nofp\libc.a(lib_a-strcpy.o)
 .bss           0x00000000        0x0 g:/rt-threadstudio/platform/env_released/env/tools/gnu_gcc/arm_gcc/mingw/bin/../lib/gcc/arm-none-eabi/10.3.1/../../../../arm-none-eabi/lib/thumb/v7-m/nofp\libc.a(lib_a-strcpy.o)
 .text.strcpy   0x00000000       0xbc g:/rt-threadstudio/platform/env_released/env/tools/gnu_gcc/arm_gcc/mingw/bin/../lib/gcc/arm-none-eabi/10.3.1/../../../../arm-none-eabi/lib/thumb/v7-m/nofp\libc.a(lib_a-strcpy.o)
 .debug_frame   0x00000000       0x20 g:/rt-threadstudio/platform/env_released/env/tools/gnu_gcc/arm_gcc/mingw/bin/../lib/gcc/arm-none-eabi/10.3.1/../../../../arm-none-eabi/lib/thumb/v7-m/nofp\libc.a(lib_a-strcpy.o)
 .ARM.attributes
                0x00000000       0x2d g:/rt-threadstudio/platform/env_released/env/tools/gnu_gcc/arm_gcc/mingw/bin/../lib/gcc/arm-none-eabi/10.3.1/../../../../arm-none-eabi/lib/thumb/v7-m/nofp\libc.a(lib_a-strcpy.o)
 .text          0x00000000        0x0 g:/rt-threadstudio/platform/env_released/env/tools/gnu_gcc/arm_gcc/mingw/bin/../lib/gcc/arm-none-eabi/10.3.1/../../../../arm-none-eabi/lib/thumb/v7-m/nofp\libc.a(lib_a-strlen-stub.o)
 .data          0x00000000        0x0 g:/rt-threadstudio/platform/env_released/env/tools/gnu_gcc/arm_gcc/mingw/bin/../lib/gcc/arm-none-eabi/10.3.1/../../../../arm-none-eabi/lib/thumb/v7-m/nofp\libc.a(lib_a-strlen-stub.o)
 .bss           0x00000000        0x0 g:/rt-threadstudio/platform/env_released/env/tools/gnu_gcc/arm_gcc/mingw/bin/../lib/gcc/arm-none-eabi/10.3.1/../../../../arm-none-eabi/lib/thumb/v7-m/nofp\libc.a(lib_a-strlen-stub.o)
 .text          0x00000000        0x0 g:/rt-threadstudio/platform/env_released/env/tools/gnu_gcc/arm_gcc/mingw/bin/../lib/gcc/arm-none-eabi/10.3.1/../../../../arm-none-eabi/lib/thumb/v7-m/nofp\libc.a(lib_a-strncat.o)
 .data          0x00000000        0x0 g:/rt-threadstudio/platform/env_released/env/tools/gnu_gcc/arm_gcc/mingw/bin/../lib/gcc/arm-none-eabi/10.3.1/../../../../arm-none-eabi/lib/thumb/v7-m/nofp\libc.a(lib_a-strncat.o)
 .bss           0x00000000        0x0 g:/rt-threadstudio/platform/env_released/env/tools/gnu_gcc/arm_gcc/mingw/bin/../lib/gcc/arm-none-eabi/10.3.1/../../../../arm-none-eabi/lib/thumb/v7-m/nofp\libc.a(lib_a-strncat.o)
 .text          0x00000000        0x0 g:/rt-threadstudio/platform/env_released/env/tools/gnu_gcc/arm_gcc/mingw/bin/../lib/gcc/arm-none-eabi/10.3.1/../../../../arm-none-eabi/lib/thumb/v7-m/nofp\libc.a(lib_a-strncmp.o)
 .data          0x00000000        0x0 g:/rt-threadstudio/platform/env_released/env/tools/gnu_gcc/arm_gcc/mingw/bin/../lib/gcc/arm-none-eabi/10.3.1/../../../../arm-none-eabi/lib/thumb/v7-m/nofp\libc.a(lib_a-strncmp.o)
 .bss           0x00000000        0x0 g:/rt-threadstudio/platform/env_released/env/tools/gnu_gcc/arm_gcc/mingw/bin/../lib/gcc/arm-none-eabi/10.3.1/../../../../arm-none-eabi/lib/thumb/v7-m/nofp\libc.a(lib_a-strncmp.o)
 .text          0x00000000        0x0 g:/rt-threadstudio/platform/env_released/env/tools/gnu_gcc/arm_gcc/mingw/bin/../lib/gcc/arm-none-eabi/10.3.1/../../../../arm-none-eabi/lib/thumb/v7-m/nofp\libc.a(lib_a-strncpy.o)
 .data          0x00000000        0x0 g:/rt-threadstudio/platform/env_released/env/tools/gnu_gcc/arm_gcc/mingw/bin/../lib/gcc/arm-none-eabi/10.3.1/../../../../arm-none-eabi/lib/thumb/v7-m/nofp\libc.a(lib_a-strncpy.o)
 .bss           0x00000000        0x0 g:/rt-threadstudio/platform/env_released/env/tools/gnu_gcc/arm_gcc/mingw/bin/../lib/gcc/arm-none-eabi/10.3.1/../../../../arm-none-eabi/lib/thumb/v7-m/nofp\libc.a(lib_a-strncpy.o)
 .text          0x00000000        0x0 g:/rt-threadstudio/platform/env_released/env/tools/gnu_gcc/arm_gcc/mingw/bin/../lib/gcc/arm-none-eabi/10.3.1/../../../../arm-none-eabi/lib/thumb/v7-m/nofp\libc.a(lib_a-strrchr.o)
 .data          0x00000000        0x0 g:/rt-threadstudio/platform/env_released/env/tools/gnu_gcc/arm_gcc/mingw/bin/../lib/gcc/arm-none-eabi/10.3.1/../../../../arm-none-eabi/lib/thumb/v7-m/nofp\libc.a(lib_a-strrchr.o)
 .bss           0x00000000        0x0 g:/rt-threadstudio/platform/env_released/env/tools/gnu_gcc/arm_gcc/mingw/bin/../lib/gcc/arm-none-eabi/10.3.1/../../../../arm-none-eabi/lib/thumb/v7-m/nofp\libc.a(lib_a-strrchr.o)
 .text          0x00000000        0x0 g:/rt-threadstudio/platform/env_released/env/tools/gnu_gcc/arm_gcc/mingw/bin/../lib/gcc/arm-none-eabi/10.3.1/../../../../arm-none-eabi/lib/thumb/v7-m/nofp\libc.a(lib_a-strstr.o)
 .data          0x00000000        0x0 g:/rt-threadstudio/platform/env_released/env/tools/gnu_gcc/arm_gcc/mingw/bin/../lib/gcc/arm-none-eabi/10.3.1/../../../../arm-none-eabi/lib/thumb/v7-m/nofp\libc.a(lib_a-strstr.o)
 .bss           0x00000000        0x0 g:/rt-threadstudio/platform/env_released/env/tools/gnu_gcc/arm_gcc/mingw/bin/../lib/gcc/arm-none-eabi/10.3.1/../../../../arm-none-eabi/lib/thumb/v7-m/nofp\libc.a(lib_a-strstr.o)
 .text          0x00000000        0x0 g:/rt-threadstudio/platform/env_released/env/tools/gnu_gcc/arm_gcc/mingw/bin/../lib/gcc/arm-none-eabi/10.3.1/../../../../arm-none-eabi/lib/thumb/v7-m/nofp\libc.a(lib_a-strtol.o)
 .data          0x00000000        0x0 g:/rt-threadstudio/platform/env_released/env/tools/gnu_gcc/arm_gcc/mingw/bin/../lib/gcc/arm-none-eabi/10.3.1/../../../../arm-none-eabi/lib/thumb/v7-m/nofp\libc.a(lib_a-strtol.o)
 .bss           0x00000000        0x0 g:/rt-threadstudio/platform/env_released/env/tools/gnu_gcc/arm_gcc/mingw/bin/../lib/gcc/arm-none-eabi/10.3.1/../../../../arm-none-eabi/lib/thumb/v7-m/nofp\libc.a(lib_a-strtol.o)
 .text._strtol_r
                0x00000000       0x1c g:/rt-threadstudio/platform/env_released/env/tools/gnu_gcc/arm_gcc/mingw/bin/../lib/gcc/arm-none-eabi/10.3.1/../../../../arm-none-eabi/lib/thumb/v7-m/nofp\libc.a(lib_a-strtol.o)
 .text.strtol_l
                0x00000000       0x2c g:/rt-threadstudio/platform/env_released/env/tools/gnu_gcc/arm_gcc/mingw/bin/../lib/gcc/arm-none-eabi/10.3.1/../../../../arm-none-eabi/lib/thumb/v7-m/nofp\libc.a(lib_a-strtol.o)
 .text          0x00000000        0x0 g:/rt-threadstudio/platform/env_released/env/tools/gnu_gcc/arm_gcc/mingw/bin/../lib/gcc/arm-none-eabi/10.3.1/../../../../arm-none-eabi/lib/thumb/v7-m/nofp\libc.a(lib_a-__call_atexit.o)
 .data          0x00000000        0x0 g:/rt-threadstudio/platform/env_released/env/tools/gnu_gcc/arm_gcc/mingw/bin/../lib/gcc/arm-none-eabi/10.3.1/../../../../arm-none-eabi/lib/thumb/v7-m/nofp\libc.a(lib_a-__call_atexit.o)
 .bss           0x00000000        0x0 g:/rt-threadstudio/platform/env_released/env/tools/gnu_gcc/arm_gcc/mingw/bin/../lib/gcc/arm-none-eabi/10.3.1/../../../../arm-none-eabi/lib/thumb/v7-m/nofp\libc.a(lib_a-__call_atexit.o)
 .text.__call_exitprocs
                0x00000000       0xc4 g:/rt-threadstudio/platform/env_released/env/tools/gnu_gcc/arm_gcc/mingw/bin/../lib/gcc/arm-none-eabi/10.3.1/../../../../arm-none-eabi/lib/thumb/v7-m/nofp\libc.a(lib_a-__call_atexit.o)
 .text          0x00000000        0x0 g:/rt-threadstudio/platform/env_released/env/tools/gnu_gcc/arm_gcc/mingw/bin/../lib/gcc/arm-none-eabi/10.3.1/../../../../arm-none-eabi/lib/thumb/v7-m/nofp\libc.a(lib_a-atexit.o)
 .data          0x00000000        0x0 g:/rt-threadstudio/platform/env_released/env/tools/gnu_gcc/arm_gcc/mingw/bin/../lib/gcc/arm-none-eabi/10.3.1/../../../../arm-none-eabi/lib/thumb/v7-m/nofp\libc.a(lib_a-atexit.o)
 .bss           0x00000000        0x0 g:/rt-threadstudio/platform/env_released/env/tools/gnu_gcc/arm_gcc/mingw/bin/../lib/gcc/arm-none-eabi/10.3.1/../../../../arm-none-eabi/lib/thumb/v7-m/nofp\libc.a(lib_a-atexit.o)
 .text          0x00000000        0x0 g:/rt-threadstudio/platform/env_released/env/tools/gnu_gcc/arm_gcc/mingw/bin/../lib/gcc/arm-none-eabi/10.3.1/../../../../arm-none-eabi/lib/thumb/v7-m/nofp\libc.a(lib_a-fini.o)
 .data          0x00000000        0x0 g:/rt-threadstudio/platform/env_released/env/tools/gnu_gcc/arm_gcc/mingw/bin/../lib/gcc/arm-none-eabi/10.3.1/../../../../arm-none-eabi/lib/thumb/v7-m/nofp\libc.a(lib_a-fini.o)
 .bss           0x00000000        0x0 g:/rt-threadstudio/platform/env_released/env/tools/gnu_gcc/arm_gcc/mingw/bin/../lib/gcc/arm-none-eabi/10.3.1/../../../../arm-none-eabi/lib/thumb/v7-m/nofp\libc.a(lib_a-fini.o)
 .text          0x00000000        0x0 g:/rt-threadstudio/platform/env_released/env/tools/gnu_gcc/arm_gcc/mingw/bin/../lib/gcc/arm-none-eabi/10.3.1/../../../../arm-none-eabi/lib/thumb/v7-m/nofp\libc.a(lib_a-lock.o)
 .data          0x00000000        0x0 g:/rt-threadstudio/platform/env_released/env/tools/gnu_gcc/arm_gcc/mingw/bin/../lib/gcc/arm-none-eabi/10.3.1/../../../../arm-none-eabi/lib/thumb/v7-m/nofp\libc.a(lib_a-lock.o)
 .bss           0x00000000        0x0 g:/rt-threadstudio/platform/env_released/env/tools/gnu_gcc/arm_gcc/mingw/bin/../lib/gcc/arm-none-eabi/10.3.1/../../../../arm-none-eabi/lib/thumb/v7-m/nofp\libc.a(lib_a-lock.o)
 .text.__retarget_lock_init
                0x00000000        0x4 g:/rt-threadstudio/platform/env_released/env/tools/gnu_gcc/arm_gcc/mingw/bin/../lib/gcc/arm-none-eabi/10.3.1/../../../../arm-none-eabi/lib/thumb/v7-m/nofp\libc.a(lib_a-lock.o)
 .text.__retarget_lock_init_recursive
                0x00000000        0x4 g:/rt-threadstudio/platform/env_released/env/tools/gnu_gcc/arm_gcc/mingw/bin/../lib/gcc/arm-none-eabi/10.3.1/../../../../arm-none-eabi/lib/thumb/v7-m/nofp\libc.a(lib_a-lock.o)
 .text.__retarget_lock_close
                0x00000000        0x4 g:/rt-threadstudio/platform/env_released/env/tools/gnu_gcc/arm_gcc/mingw/bin/../lib/gcc/arm-none-eabi/10.3.1/../../../../arm-none-eabi/lib/thumb/v7-m/nofp\libc.a(lib_a-lock.o)
 .text.__retarget_lock_close_recursive
                0x00000000        0x4 g:/rt-threadstudio/platform/env_released/env/tools/gnu_gcc/arm_gcc/mingw/bin/../lib/gcc/arm-none-eabi/10.3.1/../../../../arm-none-eabi/lib/thumb/v7-m/nofp\libc.a(lib_a-lock.o)
 .text.__retarget_lock_acquire
                0x00000000        0x4 g:/rt-threadstudio/platform/env_released/env/tools/gnu_gcc/arm_gcc/mingw/bin/../lib/gcc/arm-none-eabi/10.3.1/../../../../arm-none-eabi/lib/thumb/v7-m/nofp\libc.a(lib_a-lock.o)
 .text.__retarget_lock_try_acquire
                0x00000000        0x4 g:/rt-threadstudio/platform/env_released/env/tools/gnu_gcc/arm_gcc/mingw/bin/../lib/gcc/arm-none-eabi/10.3.1/../../../../arm-none-eabi/lib/thumb/v7-m/nofp\libc.a(lib_a-lock.o)
 .text.__retarget_lock_try_acquire_recursive
                0x00000000        0x4 g:/rt-threadstudio/platform/env_released/env/tools/gnu_gcc/arm_gcc/mingw/bin/../lib/gcc/arm-none-eabi/10.3.1/../../../../arm-none-eabi/lib/thumb/v7-m/nofp\libc.a(lib_a-lock.o)
 .text.__retarget_lock_release
                0x00000000        0x4 g:/rt-threadstudio/platform/env_released/env/tools/gnu_gcc/arm_gcc/mingw/bin/../lib/gcc/arm-none-eabi/10.3.1/../../../../arm-none-eabi/lib/thumb/v7-m/nofp\libc.a(lib_a-lock.o)
 .bss.__lock___arc4random_mutex
                0x00000000        0x1 g:/rt-threadstudio/platform/env_released/env/tools/gnu_gcc/arm_gcc/mingw/bin/../lib/gcc/arm-none-eabi/10.3.1/../../../../arm-none-eabi/lib/thumb/v7-m/nofp\libc.a(lib_a-lock.o)
 .bss.__lock___at_quick_exit_mutex
                0x00000000        0x1 g:/rt-threadstudio/platform/env_released/env/tools/gnu_gcc/arm_gcc/mingw/bin/../lib/gcc/arm-none-eabi/10.3.1/../../../../arm-none-eabi/lib/thumb/v7-m/nofp\libc.a(lib_a-lock.o)
 .bss.__lock___dd_hash_mutex
                0x00000000        0x1 g:/rt-threadstudio/platform/env_released/env/tools/gnu_gcc/arm_gcc/mingw/bin/../lib/gcc/arm-none-eabi/10.3.1/../../../../arm-none-eabi/lib/thumb/v7-m/nofp\libc.a(lib_a-lock.o)
 .bss.__lock___env_recursive_mutex
                0x00000000        0x1 g:/rt-threadstudio/platform/env_released/env/tools/gnu_gcc/arm_gcc/mingw/bin/../lib/gcc/arm-none-eabi/10.3.1/../../../../arm-none-eabi/lib/thumb/v7-m/nofp\libc.a(lib_a-lock.o)
 .bss.__lock___malloc_recursive_mutex
                0x00000000        0x1 g:/rt-threadstudio/platform/env_released/env/tools/gnu_gcc/arm_gcc/mingw/bin/../lib/gcc/arm-none-eabi/10.3.1/../../../../arm-none-eabi/lib/thumb/v7-m/nofp\libc.a(lib_a-lock.o)
 .bss.__lock___sfp_recursive_mutex
                0x00000000        0x1 g:/rt-threadstudio/platform/env_released/env/tools/gnu_gcc/arm_gcc/mingw/bin/../lib/gcc/arm-none-eabi/10.3.1/../../../../arm-none-eabi/lib/thumb/v7-m/nofp\libc.a(lib_a-lock.o)
 .bss.__lock___sinit_recursive_mutex
                0x00000000        0x1 g:/rt-threadstudio/platform/env_released/env/tools/gnu_gcc/arm_gcc/mingw/bin/../lib/gcc/arm-none-eabi/10.3.1/../../../../arm-none-eabi/lib/thumb/v7-m/nofp\libc.a(lib_a-lock.o)
 .bss.__lock___tz_mutex
                0x00000000        0x1 g:/rt-threadstudio/platform/env_released/env/tools/gnu_gcc/arm_gcc/mingw/bin/../lib/gcc/arm-none-eabi/10.3.1/../../../../arm-none-eabi/lib/thumb/v7-m/nofp\libc.a(lib_a-lock.o)
 .text          0x00000000        0x0 g:/rt-threadstudio/platform/env_released/env/tools/gnu_gcc/arm_gcc/mingw/bin/../lib/gcc/arm-none-eabi/10.3.1/../../../../arm-none-eabi/lib/thumb/v7-m/nofp\libc.a(lib_a-__atexit.o)
 .data          0x00000000        0x0 g:/rt-threadstudio/platform/env_released/env/tools/gnu_gcc/arm_gcc/mingw/bin/../lib/gcc/arm-none-eabi/10.3.1/../../../../arm-none-eabi/lib/thumb/v7-m/nofp\libc.a(lib_a-__atexit.o)
 .bss           0x00000000        0x0 g:/rt-threadstudio/platform/env_released/env/tools/gnu_gcc/arm_gcc/mingw/bin/../lib/gcc/arm-none-eabi/10.3.1/../../../../arm-none-eabi/lib/thumb/v7-m/nofp\libc.a(lib_a-__atexit.o)
 .text          0x00000000      0x378 g:/rt-threadstudio/platform/env_released/env/tools/gnu_gcc/arm_gcc/mingw/bin/../lib/gcc/arm-none-eabi/10.3.1/thumb/v7-m/nofp\libgcc.a(_arm_addsubdf3.o)
 .data          0x00000000        0x0 g:/rt-threadstudio/platform/env_released/env/tools/gnu_gcc/arm_gcc/mingw/bin/../lib/gcc/arm-none-eabi/10.3.1/thumb/v7-m/nofp\libgcc.a(_arm_addsubdf3.o)
 .bss           0x00000000        0x0 g:/rt-threadstudio/platform/env_released/env/tools/gnu_gcc/arm_gcc/mingw/bin/../lib/gcc/arm-none-eabi/10.3.1/thumb/v7-m/nofp\libgcc.a(_arm_addsubdf3.o)
 .debug_frame   0x00000000       0xac g:/rt-threadstudio/platform/env_released/env/tools/gnu_gcc/arm_gcc/mingw/bin/../lib/gcc/arm-none-eabi/10.3.1/thumb/v7-m/nofp\libgcc.a(_arm_addsubdf3.o)
 .ARM.attributes
                0x00000000       0x1d g:/rt-threadstudio/platform/env_released/env/tools/gnu_gcc/arm_gcc/mingw/bin/../lib/gcc/arm-none-eabi/10.3.1/thumb/v7-m/nofp\libgcc.a(_arm_addsubdf3.o)
 .text          0x00000000       0xa0 g:/rt-threadstudio/platform/env_released/env/tools/gnu_gcc/arm_gcc/mingw/bin/../lib/gcc/arm-none-eabi/10.3.1/thumb/v7-m/nofp\libgcc.a(_aeabi_ldivmod.o)
 .data          0x00000000        0x0 g:/rt-threadstudio/platform/env_released/env/tools/gnu_gcc/arm_gcc/mingw/bin/../lib/gcc/arm-none-eabi/10.3.1/thumb/v7-m/nofp\libgcc.a(_aeabi_ldivmod.o)
 .bss           0x00000000        0x0 g:/rt-threadstudio/platform/env_released/env/tools/gnu_gcc/arm_gcc/mingw/bin/../lib/gcc/arm-none-eabi/10.3.1/thumb/v7-m/nofp\libgcc.a(_aeabi_ldivmod.o)
 .debug_frame   0x00000000       0x44 g:/rt-threadstudio/platform/env_released/env/tools/gnu_gcc/arm_gcc/mingw/bin/../lib/gcc/arm-none-eabi/10.3.1/thumb/v7-m/nofp\libgcc.a(_aeabi_ldivmod.o)
 .ARM.attributes
                0x00000000       0x1d g:/rt-threadstudio/platform/env_released/env/tools/gnu_gcc/arm_gcc/mingw/bin/../lib/gcc/arm-none-eabi/10.3.1/thumb/v7-m/nofp\libgcc.a(_aeabi_ldivmod.o)
 .text          0x00000000      0x2d4 g:/rt-threadstudio/platform/env_released/env/tools/gnu_gcc/arm_gcc/mingw/bin/../lib/gcc/arm-none-eabi/10.3.1/thumb/v7-m/nofp\libgcc.a(_udivmoddi4.o)
 .data          0x00000000        0x0 g:/rt-threadstudio/platform/env_released/env/tools/gnu_gcc/arm_gcc/mingw/bin/../lib/gcc/arm-none-eabi/10.3.1/thumb/v7-m/nofp\libgcc.a(_udivmoddi4.o)
 .bss           0x00000000        0x0 g:/rt-threadstudio/platform/env_released/env/tools/gnu_gcc/arm_gcc/mingw/bin/../lib/gcc/arm-none-eabi/10.3.1/thumb/v7-m/nofp\libgcc.a(_udivmoddi4.o)
 .ARM.extab     0x00000000        0x0 g:/rt-threadstudio/platform/env_released/env/tools/gnu_gcc/arm_gcc/mingw/bin/../lib/gcc/arm-none-eabi/10.3.1/thumb/v7-m/nofp\libgcc.a(_udivmoddi4.o)
 .ARM.exidx     0x00000000        0x8 g:/rt-threadstudio/platform/env_released/env/tools/gnu_gcc/arm_gcc/mingw/bin/../lib/gcc/arm-none-eabi/10.3.1/thumb/v7-m/nofp\libgcc.a(_udivmoddi4.o)
 .debug_frame   0x00000000       0x34 g:/rt-threadstudio/platform/env_released/env/tools/gnu_gcc/arm_gcc/mingw/bin/../lib/gcc/arm-none-eabi/10.3.1/thumb/v7-m/nofp\libgcc.a(_udivmoddi4.o)
 .ARM.attributes
                0x00000000       0x2d g:/rt-threadstudio/platform/env_released/env/tools/gnu_gcc/arm_gcc/mingw/bin/../lib/gcc/arm-none-eabi/10.3.1/thumb/v7-m/nofp\libgcc.a(_udivmoddi4.o)
 .text          0x00000000        0x4 g:/rt-threadstudio/platform/env_released/env/tools/gnu_gcc/arm_gcc/mingw/bin/../lib/gcc/arm-none-eabi/10.3.1/thumb/v7-m/nofp\libgcc.a(_dvmd_tls.o)
 .data          0x00000000        0x0 g:/rt-threadstudio/platform/env_released/env/tools/gnu_gcc/arm_gcc/mingw/bin/../lib/gcc/arm-none-eabi/10.3.1/thumb/v7-m/nofp\libgcc.a(_dvmd_tls.o)
 .bss           0x00000000        0x0 g:/rt-threadstudio/platform/env_released/env/tools/gnu_gcc/arm_gcc/mingw/bin/../lib/gcc/arm-none-eabi/10.3.1/thumb/v7-m/nofp\libgcc.a(_dvmd_tls.o)
 .ARM.attributes
                0x00000000       0x1d g:/rt-threadstudio/platform/env_released/env/tools/gnu_gcc/arm_gcc/mingw/bin/../lib/gcc/arm-none-eabi/10.3.1/thumb/v7-m/nofp\libgcc.a(_dvmd_tls.o)
 .text          0x00000000        0x0 g:/rt-threadstudio/platform/env_released/env/tools/gnu_gcc/arm_gcc/mingw/bin/../lib/gcc/arm-none-eabi/10.3.1/thumb/v7-m/nofp/crtend.o
 .data          0x00000000        0x0 g:/rt-threadstudio/platform/env_released/env/tools/gnu_gcc/arm_gcc/mingw/bin/../lib/gcc/arm-none-eabi/10.3.1/thumb/v7-m/nofp/crtend.o
 .bss           0x00000000        0x0 g:/rt-threadstudio/platform/env_released/env/tools/gnu_gcc/arm_gcc/mingw/bin/../lib/gcc/arm-none-eabi/10.3.1/thumb/v7-m/nofp/crtend.o
 .rodata        0x00000000       0x24 g:/rt-threadstudio/platform/env_released/env/tools/gnu_gcc/arm_gcc/mingw/bin/../lib/gcc/arm-none-eabi/10.3.1/thumb/v7-m/nofp/crtend.o
 .eh_frame      0x00000000        0x4 g:/rt-threadstudio/platform/env_released/env/tools/gnu_gcc/arm_gcc/mingw/bin/../lib/gcc/arm-none-eabi/10.3.1/thumb/v7-m/nofp/crtend.o
 .ARM.attributes
                0x00000000       0x2d g:/rt-threadstudio/platform/env_released/env/tools/gnu_gcc/arm_gcc/mingw/bin/../lib/gcc/arm-none-eabi/10.3.1/thumb/v7-m/nofp/crtend.o
 .text          0x00000000        0x0 g:/rt-threadstudio/platform/env_released/env/tools/gnu_gcc/arm_gcc/mingw/bin/../lib/gcc/arm-none-eabi/10.3.1/thumb/v7-m/nofp/crtn.o
 .data          0x00000000        0x0 g:/rt-threadstudio/platform/env_released/env/tools/gnu_gcc/arm_gcc/mingw/bin/../lib/gcc/arm-none-eabi/10.3.1/thumb/v7-m/nofp/crtn.o
 .bss           0x00000000        0x0 g:/rt-threadstudio/platform/env_released/env/tools/gnu_gcc/arm_gcc/mingw/bin/../lib/gcc/arm-none-eabi/10.3.1/thumb/v7-m/nofp/crtn.o
 .init          0x00000000        0x8 g:/rt-threadstudio/platform/env_released/env/tools/gnu_gcc/arm_gcc/mingw/bin/../lib/gcc/arm-none-eabi/10.3.1/thumb/v7-m/nofp/crtn.o
 .fini          0x00000000        0x8 g:/rt-threadstudio/platform/env_released/env/tools/gnu_gcc/arm_gcc/mingw/bin/../lib/gcc/arm-none-eabi/10.3.1/thumb/v7-m/nofp/crtn.o
 .ARM.attributes
                0x00000000       0x1d g:/rt-threadstudio/platform/env_released/env/tools/gnu_gcc/arm_gcc/mingw/bin/../lib/gcc/arm-none-eabi/10.3.1/thumb/v7-m/nofp/crtn.o

Memory Configuration

Name             Origin             Length             Attributes
ROM              0x08000000         0x00010000         xr
RAM              0x20000000         0x00005000         rw
*default*        0x00000000         0xffffffff

Linker script and memory map

LOAD g:/rt-threadstudio/platform/env_released/env/tools/gnu_gcc/arm_gcc/mingw/bin/../lib/gcc/arm-none-eabi/10.3.1/thumb/v7-m/nofp/crti.o
LOAD g:/rt-threadstudio/platform/env_released/env/tools/gnu_gcc/arm_gcc/mingw/bin/../lib/gcc/arm-none-eabi/10.3.1/thumb/v7-m/nofp/crtbegin.o
LOAD g:/rt-threadstudio/platform/env_released/env/tools/gnu_gcc/arm_gcc/mingw/bin/../lib/gcc/arm-none-eabi/10.3.1/../../../../arm-none-eabi/lib/thumb/v7-m/nofp/crt0.o
LOAD build\applications\main.o
LOAD build\board\ports\user_key.o
LOAD libraries\STM32F1xx_HAL\CMSIS\Device\ST\STM32F1xx\Source\Templates\gcc\startup_stm32f103xb.o
LOAD build\board\CubeMX_Config\Src\stm32f1xx_hal_msp.o
LOAD build\board\board.o
LOAD build\kernel\src\mem.o
LOAD build\kernel\src\timer.o
LOAD build\kernel\src\irq.o
LOAD build\kernel\src\components.o
LOAD build\kernel\src\mempool.o
LOAD build\kernel\src\thread.o
LOAD build\kernel\src\clock.o
LOAD build\kernel\src\ipc.o
LOAD build\kernel\src\device.o
LOAD build\kernel\src\scheduler.o
LOAD build\kernel\src\idle.o
LOAD build\kernel\src\object.o
LOAD build\kernel\src\kservice.o
LOAD build\kernel\libcpu\arm\common\div0.o
LOAD build\kernel\libcpu\arm\common\backtrace.o
LOAD build\kernel\libcpu\arm\common\showmem.o
LOAD build\kernel\libcpu\arm\cortex-m3\context_gcc.o
LOAD build\kernel\libcpu\arm\cortex-m3\cpuport.o
LOAD build\kernel\components\dfs\src\dfs_posix.o
LOAD build\kernel\components\dfs\src\dfs_fs.o
LOAD build\kernel\components\dfs\src\dfs.o
LOAD build\kernel\components\dfs\src\dfs_file.o
LOAD build\kernel\components\drivers\ipc\completion.o
LOAD build\kernel\components\drivers\ipc\dataqueue.o
LOAD build\kernel\components\drivers\ipc\ringblk_buf.o
LOAD build\kernel\components\drivers\ipc\workqueue.o
LOAD build\kernel\components\drivers\ipc\ringbuffer.o
LOAD build\kernel\components\drivers\ipc\waitqueue.o
LOAD build\kernel\components\drivers\ipc\pipe.o
LOAD build\kernel\components\drivers\misc\pin.o
LOAD build\kernel\components\drivers\serial\serial.o
LOAD build\kernel\components\finsh\shell.o
LOAD build\kernel\components\finsh\msh.o
LOAD build\kernel\components\finsh\msh_parse.o
LOAD build\kernel\components\finsh\cmd.o
LOAD build\kernel\components\finsh\msh_file.o
LOAD build\kernel\components\libc\compilers\common\cwchar.o
LOAD build\kernel\components\libc\compilers\common\cstdlib.o
LOAD build\kernel\components\libc\compilers\common\ctime.o
LOAD build\kernel\components\libc\compilers\common\cctype.o
LOAD build\kernel\components\libc\compilers\common\cstring.o
LOAD build\kernel\components\libc\compilers\common\cstdio.o
LOAD build\kernel\components\libc\compilers\newlib\syscalls.o
LOAD libraries\STM32F1xx_HAL\STM32F1xx_HAL_Driver\Src\stm32f1xx_hal_rcc_ex.o
LOAD libraries\STM32F1xx_HAL\STM32F1xx_HAL_Driver\Src\stm32f1xx_hal_cortex.o
LOAD libraries\STM32F1xx_HAL\STM32F1xx_HAL_Driver\Src\stm32f1xx_hal_gpio_ex.o
LOAD libraries\STM32F1xx_HAL\STM32F1xx_HAL_Driver\Src\stm32f1xx_hal_rcc.o
LOAD libraries\STM32F1xx_HAL\STM32F1xx_HAL_Driver\Src\stm32f1xx_hal_pwr.o
LOAD libraries\STM32F1xx_HAL\STM32F1xx_HAL_Driver\Src\stm32f1xx_hal_dma.o
LOAD libraries\STM32F1xx_HAL\STM32F1xx_HAL_Driver\Src\stm32f1xx_hal_crc.o
LOAD libraries\STM32F1xx_HAL\CMSIS\Device\ST\STM32F1xx\Source\Templates\system_stm32f1xx.o
LOAD libraries\STM32F1xx_HAL\STM32F1xx_HAL_Driver\Src\stm32f1xx_hal_uart.o
LOAD libraries\STM32F1xx_HAL\STM32F1xx_HAL_Driver\Src\stm32f1xx_hal.o
LOAD libraries\STM32F1xx_HAL\STM32F1xx_HAL_Driver\Src\stm32f1xx_hal_cec.o
LOAD libraries\STM32F1xx_HAL\STM32F1xx_HAL_Driver\Src\stm32f1xx_hal_usart.o
LOAD libraries\STM32F1xx_HAL\STM32F1xx_HAL_Driver\Src\stm32f1xx_hal_gpio.o
LOAD libraries\HAL_Drivers\drv_gpio.o
LOAD libraries\HAL_Drivers\drv_usart.o
LOAD libraries\HAL_Drivers\drv_common.o
LOAD g:/rt-threadstudio/platform/env_released/env/tools/gnu_gcc/arm_gcc/mingw/bin/../lib/gcc/arm-none-eabi/10.3.1/../../../../arm-none-eabi/lib/thumb/v7-m/nofp\libc.a
LOAD g:/rt-threadstudio/platform/env_released/env/tools/gnu_gcc/arm_gcc/mingw/bin/../lib/gcc/arm-none-eabi/10.3.1/../../../../arm-none-eabi/lib/thumb/v7-m/nofp\libm.a
START GROUP
LOAD g:/rt-threadstudio/platform/env_released/env/tools/gnu_gcc/arm_gcc/mingw/bin/../lib/gcc/arm-none-eabi/10.3.1/thumb/v7-m/nofp\libgcc.a
LOAD g:/rt-threadstudio/platform/env_released/env/tools/gnu_gcc/arm_gcc/mingw/bin/../lib/gcc/arm-none-eabi/10.3.1/../../../../arm-none-eabi/lib/thumb/v7-m/nofp\libc.a
END GROUP
LOAD g:/rt-threadstudio/platform/env_released/env/tools/gnu_gcc/arm_gcc/mingw/bin/../lib/gcc/arm-none-eabi/10.3.1/thumb/v7-m/nofp/crtend.o
LOAD g:/rt-threadstudio/platform/env_released/env/tools/gnu_gcc/arm_gcc/mingw/bin/../lib/gcc/arm-none-eabi/10.3.1/thumb/v7-m/nofp/crtn.o
                0x00000400                _system_stack_size = 0x400

.text           0x08000000     0xebf4
                0x08000000                . = ALIGN (0x4)
                0x08000000                _stext = .
 *(.isr_vector)
 .isr_vector    0x08000000      0x10c libraries\STM32F1xx_HAL\CMSIS\Device\ST\STM32F1xx\Source\Templates\gcc\startup_stm32f103xb.o
                0x08000000                g_pfnVectors
                0x0800010c                . = ALIGN (0x4)
 *(.text)
 .text          0x0800010c       0x40 g:/rt-threadstudio/platform/env_released/env/tools/gnu_gcc/arm_gcc/mingw/bin/../lib/gcc/arm-none-eabi/10.3.1/thumb/v7-m/nofp/crtbegin.o
 .text          0x0800014c      0x108 build\kernel\libcpu\arm\cortex-m3\context_gcc.o
                0x0800014c                rt_hw_interrupt_disable
                0x08000154                rt_hw_interrupt_enable
                0x0800015a                rt_hw_context_switch_interrupt
                0x0800015a                rt_hw_context_switch
                0x0800017a                PendSV_Handler
                0x080001b6                rt_hw_context_switch_to
                0x080001f8                rt_hw_interrupt_thread_switch
                0x080001fc                HardFault_Handler
                0x08000232                rt_hw_interrupt_check
 .text          0x08000254       0xec g:/rt-threadstudio/platform/env_released/env/tools/gnu_gcc/arm_gcc/mingw/bin/../lib/gcc/arm-none-eabi/10.3.1/../../../../arm-none-eabi/lib/thumb/v7-m/nofp\libc.a(lib_a-memcpy.o)
                0x08000254                memcpy
 .text          0x08000340      0x1bc g:/rt-threadstudio/platform/env_released/env/tools/gnu_gcc/arm_gcc/mingw/bin/../lib/gcc/arm-none-eabi/10.3.1/../../../../arm-none-eabi/lib/thumb/v7-m/nofp\libc.a(lib_a-strcmp.o)
                0x08000340                strcmp
 *(.text.*)
 .text.startup.main
                0x080004fc       0x2c build\applications\main.o
                0x080004fc                main
 .text.rt_hw_user_key_init
                0x08000528       0x28 build\board\ports\user_key.o
 .text.KEY_IRQHandler
                0x08000550       0x30 build\board\ports\user_key.o
 .text.Reset_Handler
                0x08000580       0x48 libraries\STM32F1xx_HAL\CMSIS\Device\ST\STM32F1xx\Source\Templates\gcc\startup_stm32f103xb.o
                0x08000580                Reset_Handler
 .text.Default_Handler
                0x080005c8        0x2 libraries\STM32F1xx_HAL\CMSIS\Device\ST\STM32F1xx\Source\Templates\gcc\startup_stm32f103xb.o
                0x080005c8                RTC_Alarm_IRQHandler
                0x080005c8                DebugMon_Handler
                0x080005c8                TIM1_CC_IRQHandler
                0x080005c8                PVD_IRQHandler
                0x080005c8                NMI_Handler
                0x080005c8                I2C2_EV_IRQHandler
                0x080005c8                UsageFault_Handler
                0x080005c8                ADC1_2_IRQHandler
                0x080005c8                SPI1_IRQHandler
                0x080005c8                TAMPER_IRQHandler
                0x080005c8                DMA1_Channel4_IRQHandler
                0x080005c8                USART3_IRQHandler
                0x080005c8                RTC_IRQHandler
                0x080005c8                DMA1_Channel7_IRQHandler
                0x080005c8                CAN1_RX1_IRQHandler
                0x080005c8                TIM4_IRQHandler
                0x080005c8                I2C1_EV_IRQHandler
                0x080005c8                DMA1_Channel6_IRQHandler
                0x080005c8                TIM3_IRQHandler
                0x080005c8                RCC_IRQHandler
                0x080005c8                TIM1_TRG_COM_IRQHandler
                0x080005c8                DMA1_Channel1_IRQHandler
                0x080005c8                Default_Handler
                0x080005c8                SPI2_IRQHandler
                0x080005c8                MemManage_Handler
                0x080005c8                SVC_Handler
                0x080005c8                DMA1_Channel5_IRQHandler
                0x080005c8                USB_LP_CAN1_RX0_IRQHandler
                0x080005c8                USB_HP_CAN1_TX_IRQHandler
                0x080005c8                DMA1_Channel3_IRQHandler
                0x080005c8                TIM1_UP_IRQHandler
                0x080005c8                WWDG_IRQHandler
                0x080005c8                TIM2_IRQHandler
                0x080005c8                TIM1_BRK_IRQHandler
                0x080005c8                USART2_IRQHandler
                0x080005c8                I2C2_ER_IRQHandler
                0x080005c8                DMA1_Channel2_IRQHandler
                0x080005c8                CAN1_SCE_IRQHandler
                0x080005c8                FLASH_IRQHandler
                0x080005c8                BusFault_Handler
                0x080005c8                I2C1_ER_IRQHandler
                0x080005c8                USBWakeUp_IRQHandler
 *fill*         0x080005ca        0x2 00000000
 .text.HAL_MspInit
                0x080005cc       0x44 build\board\CubeMX_Config\Src\stm32f1xx_hal_msp.o
                0x080005cc                HAL_MspInit
 .text.HAL_UART_MspInit
                0x08000610       0xd0 build\board\CubeMX_Config\Src\stm32f1xx_hal_msp.o
                0x08000610                HAL_UART_MspInit
 .text.HAL_UART_MspDeInit
                0x080006e0       0x48 build\board\CubeMX_Config\Src\stm32f1xx_hal_msp.o
                0x080006e0                HAL_UART_MspDeInit
 .text.SystemClock_Config
                0x08000728       0x9c build\board\board.o
                0x08000728                SystemClock_Config
 .text.plug_holes
                0x080007c4       0x8c build\kernel\src\mem.o
 .text.rt_smem_init
                0x08000850       0x84 build\kernel\src\mem.o
                0x08000850                rt_smem_init
 .text.rt_smem_alloc
                0x080008d4      0x170 build\kernel\src\mem.o
                0x080008d4                rt_smem_alloc
 .text.rt_smem_free
                0x08000a44      0x104 build\kernel\src\mem.o
                0x08000a44                rt_smem_free
 .text.rt_smem_realloc
                0x08000b48      0x174 build\kernel\src\mem.o
                0x08000b48                rt_smem_realloc
 .text.rt_timer_init
                0x08000cbc       0x84 build\kernel\src\timer.o
                0x08000cbc                rt_timer_init
 .text.rt_timer_detach
                0x08000d40       0x7c build\kernel\src\timer.o
                0x08000d40                rt_timer_detach
 .text.rt_timer_start
                0x08000dbc      0x110 build\kernel\src\timer.o
                0x08000dbc                rt_timer_start
 .text.rt_timer_stop
                0x08000ecc       0x74 build\kernel\src\timer.o
                0x08000ecc                rt_timer_stop
 .text.rt_timer_control
                0x08000f40       0xc8 build\kernel\src\timer.o
                0x08000f40                rt_timer_control
 .text.rt_timer_check
                0x08001008       0xdc build\kernel\src\timer.o
                0x08001008                rt_timer_check
 .text.rt_soft_timer_check
                0x080010e4       0xe8 build\kernel\src\timer.o
                0x080010e4                rt_soft_timer_check
 .text._timer_thread_entry
                0x080011cc       0x44 build\kernel\src\timer.o
 .text.rt_system_timer_init
                0x08001210        0xc build\kernel\src\timer.o
                0x08001210                rt_system_timer_init
 .text.rt_system_timer_thread_init
                0x0800121c       0x4c build\kernel\src\timer.o
                0x0800121c                rt_system_timer_thread_init
 .text.rt_interrupt_enter
                0x08001268       0x2c build\kernel\src\irq.o
                0x08001268                rt_interrupt_enter
 .text.rt_interrupt_leave
                0x08001294       0x2c build\kernel\src\irq.o
                0x08001294                rt_interrupt_leave
 .text.rt_interrupt_get_nest
                0x080012c0       0x18 build\kernel\src\irq.o
                0x080012c0                rt_interrupt_get_nest
 .text.rti_start
                0x080012d8        0x4 build\kernel\src\components.o
 .text.main_thread_entry
                0x080012dc       0x24 build\kernel\src\components.o
                0x080012dc                main_thread_entry
 .text.rti_end  0x08001300        0x4 build\kernel\src\components.o
 .text.rti_board_start
                0x08001304        0x4 build\kernel\src\components.o
 .text.rti_board_end
                0x08001308        0x4 build\kernel\src\components.o
 .text.rt_components_board_init
                0x0800130c       0x20 build\kernel\src\components.o
                0x0800130c                rt_components_board_init
 .text.rt_application_init
                0x0800132c       0x50 build\kernel\src\components.o
                0x0800132c                rt_application_init
 .text.entry    0x0800137c       0x2c build\kernel\src\components.o
                0x0800137c                entry
 .text._thread_timeout
                0x080013a8       0x7c build\kernel\src\thread.o
 .text._thread_exit
                0x08001424       0x38 build\kernel\src\thread.o
 .text._thread_init.constprop.0
                0x0800145c       0xa0 build\kernel\src\thread.o
 .text.rt_thread_init
                0x080014fc       0x74 build\kernel\src\thread.o
                0x080014fc                rt_thread_init
 .text.rt_thread_self
                0x08001570        0xc build\kernel\src\thread.o
                0x08001570                rt_thread_self
 .text.rt_thread_detach
                0x0800157c       0x8c build\kernel\src\thread.o
                0x0800157c                rt_thread_detach
 .text.rt_thread_create
                0x08001608       0x54 build\kernel\src\thread.o
                0x08001608                rt_thread_create
 .text.rt_thread_delete
                0x0800165c       0x8c build\kernel\src\thread.o
                0x0800165c                rt_thread_delete
 .text.rt_thread_suspend
                0x080016e8       0xa8 build\kernel\src\thread.o
                0x080016e8                rt_thread_suspend
 .text.rt_thread_sleep
                0x08001790       0x7c build\kernel\src\thread.o
                0x08001790                rt_thread_sleep
 .text.rt_thread_delay
                0x0800180c        0x4 build\kernel\src\thread.o
                0x0800180c                rt_thread_delay
 .text.rt_thread_mdelay
                0x08001810       0x10 build\kernel\src\thread.o
                0x08001810                rt_thread_mdelay
 .text.rt_thread_resume
                0x08001820       0x88 build\kernel\src\thread.o
                0x08001820                rt_thread_resume
 .text.rt_thread_startup
                0x080018a8       0x78 build\kernel\src\thread.o
                0x080018a8                rt_thread_startup
 .text.rt_thread_control
                0x08001920       0xb8 build\kernel\src\thread.o
                0x08001920                rt_thread_control
 .text.rt_tick_get
                0x080019d8        0xc build\kernel\src\clock.o
                0x080019d8                rt_tick_get
 .text.rt_tick_increase
                0x080019e4       0x60 build\kernel\src\clock.o
                0x080019e4                rt_tick_increase
 .text.rt_tick_from_millisecond
                0x08001a44       0x3c build\kernel\src\clock.o
                0x08001a44                rt_tick_from_millisecond
 .text.rt_sem_init
                0x08001a80       0x68 build\kernel\src\ipc.o
                0x08001a80                rt_sem_init
 .text.rt_sem_take
                0x08001ae8      0x1bc build\kernel\src\ipc.o
                0x08001ae8                rt_sem_take
 .text.rt_sem_release
                0x08001ca4       0x8c build\kernel\src\ipc.o
                0x08001ca4                rt_sem_release
 .text.rt_mutex_init
                0x08001d30       0x44 build\kernel\src\ipc.o
                0x08001d30                rt_mutex_init
 .text.rt_mutex_take
                0x08001d74      0x210 build\kernel\src\ipc.o
                0x08001d74                rt_mutex_take
 .text.rt_mutex_release
                0x08001f84      0x160 build\kernel\src\ipc.o
                0x08001f84                rt_mutex_release
 .text.rt_device_register
                0x080020e4       0x38 build\kernel\src\device.o
                0x080020e4                rt_device_register
 .text.rt_device_find
                0x0800211c        0x8 build\kernel\src\device.o
                0x0800211c                rt_device_find
 .text.rt_device_open
                0x08002124       0xb8 build\kernel\src\device.o
                0x08002124                rt_device_open
 .text.rt_device_close
                0x080021dc       0x64 build\kernel\src\device.o
                0x080021dc                rt_device_close
 .text.rt_device_read
                0x08002240       0x78 build\kernel\src\device.o
                0x08002240                rt_device_read
 .text.rt_device_write
                0x080022b8       0x78 build\kernel\src\device.o
                0x080022b8                rt_device_write
 .text.rt_device_set_rx_indicate
                0x08002330       0x40 build\kernel\src\device.o
                0x08002330                rt_device_set_rx_indicate
 .text.rt_system_scheduler_init
                0x08002370       0x2c build\kernel\src\scheduler.o
                0x08002370                rt_system_scheduler_init
 .text.rt_schedule_insert_thread
                0x0800239c       0x9c build\kernel\src\scheduler.o
                0x0800239c                rt_schedule_insert_thread
 .text.rt_schedule_remove_thread
                0x08002438       0x68 build\kernel\src\scheduler.o
                0x08002438                rt_schedule_remove_thread
 .text.rt_system_scheduler_start
                0x080024a0       0x3c build\kernel\src\scheduler.o
                0x080024a0                rt_system_scheduler_start
 .text.rt_schedule
                0x080024dc      0x15c build\kernel\src\scheduler.o
                0x080024dc                rt_schedule
 .text.rt_enter_critical
                0x08002638       0x1c build\kernel\src\scheduler.o
                0x08002638                rt_enter_critical
 .text.rt_exit_critical
                0x08002654       0x3c build\kernel\src\scheduler.o
                0x08002654                rt_exit_critical
 .text.rt_critical_level
                0x08002690        0xc build\kernel\src\scheduler.o
                0x08002690                rt_critical_level
 .text.rt_thread_idle_entry
                0x0800269c       0x7c build\kernel\src\idle.o
 .text.rt_thread_defunct_enqueue
                0x08002718       0x18 build\kernel\src\idle.o
                0x08002718                rt_thread_defunct_enqueue
 .text.rt_thread_idle_init
                0x08002730       0x48 build\kernel\src\idle.o
                0x08002730                rt_thread_idle_init
 .text.rt_object_get_information
                0x08002778       0x24 build\kernel\src\object.o
                0x08002778                rt_object_get_information
 .text.rt_object_init
                0x0800279c       0xc4 build\kernel\src\object.o
                0x0800279c                rt_object_init
 .text.rt_object_detach
                0x08002860       0x4c build\kernel\src\object.o
                0x08002860                rt_object_detach
 .text.rt_object_allocate
                0x080028ac       0xc8 build\kernel\src\object.o
                0x080028ac                rt_object_allocate
 .text.rt_object_delete
                0x08002974       0x6c build\kernel\src\object.o
                0x08002974                rt_object_delete
 .text.rt_object_is_systemobject
                0x080029e0       0x2c build\kernel\src\object.o
                0x080029e0                rt_object_is_systemobject
 .text.rt_object_get_type
                0x08002a0c       0x2c build\kernel\src\object.o
                0x08002a0c                rt_object_get_type
 .text.rt_object_find
                0x08002a38       0x94 build\kernel\src\object.o
                0x08002a38                rt_object_find
 .text.print_number
                0x08002acc      0x1bc build\kernel\src\kservice.o
 .text.rt_strerror
                0x08002c88       0x1c build\kernel\src\kservice.o
                0x08002c88                rt_strerror
 .text.rt_set_errno
                0x08002ca4       0x20 build\kernel\src\kservice.o
                0x08002ca4                rt_set_errno
 .text._rt_errno
                0x08002cc4       0x1c build\kernel\src\kservice.o
                0x08002cc4                _rt_errno
 .text.rt_memset
                0x08002ce0       0x84 build\kernel\src\kservice.o
                0x08002ce0                rt_memset
 .text.rt_memcpy
                0x08002d64       0xd8 build\kernel\src\kservice.o
                0x08002d64                rt_memcpy
 .text.rt_memmove
                0x08002e3c       0x38 build\kernel\src\kservice.o
                0x08002e3c                rt_memmove
 .text.rt_vsnprintf
                0x08002e74      0x384 build\kernel\src\kservice.o
                0x08002e74                rt_vsnprintf
 .text.rt_snprintf
                0x080031f8       0x1c build\kernel\src\kservice.o
                0x080031f8                rt_snprintf
 .text.rt_sprintf
                0x08003214       0x20 build\kernel\src\kservice.o
                0x08003214                rt_sprintf
 .text.rt_console_get_device
                0x08003234        0xc build\kernel\src\kservice.o
                0x08003234                rt_console_get_device
 .text.rt_console_set_device
                0x08003240       0x30 build\kernel\src\kservice.o
                0x08003240                rt_console_set_device
 .text.rt_hw_console_output
                0x08003270        0x4 build\kernel\src\kservice.o
                0x08003270                rt_hw_console_output
 .text.rt_kprintf
                0x08003274       0x4c build\kernel\src\kservice.o
                0x08003274                rt_kprintf
 .text.rt_show_version
                0x080032c0       0x48 build\kernel\src\kservice.o
                0x080032c0                rt_show_version
 .text.rt_system_heap_init
                0x08003308       0x80 build\kernel\src\kservice.o
                0x08003308                rt_system_heap_init
 .text.rt_malloc
                0x08003388       0x9c build\kernel\src\kservice.o
                0x08003388                rt_malloc
 .text.rt_strdup
                0x08003424       0x20 build\kernel\src\kservice.o
                0x08003424                rt_strdup
 .text.rt_realloc
                0x08003444       0x94 build\kernel\src\kservice.o
                0x08003444                rt_realloc
 .text.rt_calloc
                0x080034d8       0x1c build\kernel\src\kservice.o
                0x080034d8                rt_calloc
 .text.rt_free  0x080034f4       0x98 build\kernel\src\kservice.o
                0x080034f4                rt_free
 .text.rt_memory_info
                0x0800358c       0x98 build\kernel\src\kservice.o
                0x0800358c                rt_memory_info
 .text.rt_assert_handler
                0x08003624       0x3c build\kernel\src\kservice.o
                0x08003624                rt_assert_handler
 .text.rt_hw_stack_init
                0x08003660       0x40 build\kernel\libcpu\arm\cortex-m3\cpuport.o
                0x08003660                rt_hw_stack_init
 .text.rt_hw_hard_fault_exception
                0x080036a0      0x348 build\kernel\libcpu\arm\cortex-m3\cpuport.o
                0x080036a0                rt_hw_hard_fault_exception
 .text.rt_hw_cpu_reset
                0x080039e8       0x10 build\kernel\libcpu\arm\cortex-m3\cpuport.o
                0x080039e8                rt_hw_cpu_reset
 .text.__rt_ffs
                0x080039f8       0x14 build\kernel\libcpu\arm\cortex-m3\cpuport.o
                0x080039f8                __rt_ffs
 .text.open     0x08003a0c       0x54 build\kernel\components\dfs\src\dfs_posix.o
                0x08003a0c                open
 .text.close    0x08003a60       0x40 build\kernel\components\dfs\src\dfs_posix.o
                0x08003a60                close
 .text.read     0x08003aa0       0x44 build\kernel\components\dfs\src\dfs_posix.o
                0x08003aa0                read
 .text.write    0x08003ae4       0x44 build\kernel\components\dfs\src\dfs_posix.o
                0x08003ae4                write
 .text.lseek    0x08003b28       0x74 build\kernel\components\dfs\src\dfs_posix.o
                0x08003b28                lseek
 .text.rename   0x08003b9c       0x1c build\kernel\components\dfs\src\dfs_posix.o
                0x08003b9c                rename
 .text.unlink   0x08003bb8       0x1c build\kernel\components\dfs\src\dfs_posix.o
                0x08003bb8                unlink
 .text.stat     0x08003bd4       0x18 build\kernel\components\dfs\src\dfs_posix.o
                0x08003bd4                stat
 .text.mkdir    0x08003bec       0x5c build\kernel\components\dfs\src\dfs_posix.o
                0x08003bec                mkdir
 .text.opendir  0x08003c48       0x78 build\kernel\components\dfs\src\dfs_posix.o
                0x08003c48                opendir
 .text.readdir  0x08003cc0       0x6c build\kernel\components\dfs\src\dfs_posix.o
                0x08003cc0                readdir
 .text.rewinddir
                0x08003d2c       0x38 build\kernel\components\dfs\src\dfs_posix.o
                0x08003d2c                rewinddir
 .text.closedir
                0x08003d64       0x4c build\kernel\components\dfs\src\dfs_posix.o
                0x08003d64                closedir
 .text.chdir    0x08003db0       0x80 build\kernel\components\dfs\src\dfs_posix.o
                0x08003db0                chdir
 .text.getcwd   0x08003e30       0x20 build\kernel\components\dfs\src\dfs_posix.o
                0x08003e30                getcwd
 .text.dfs_filesystem_lookup
                0x08003e50       0x90 build\kernel\components\dfs\src\dfs_fs.o
                0x08003e50                dfs_filesystem_lookup
 .text.dfs_mount
                0x08003ee0      0x1c0 build\kernel\components\dfs\src\dfs_fs.o
                0x08003ee0                dfs_mount
 .text.dfs_unmount
                0x080040a0       0x88 build\kernel\components\dfs\src\dfs_fs.o
                0x080040a0                dfs_unmount
 .text.dfs_mkfs
                0x08004128       0xc0 build\kernel\components\dfs\src\dfs_fs.o
                0x08004128                dfs_mkfs
 .text.df       0x080041e8       0xe8 build\kernel\components\dfs\src\dfs_fs.o
                0x080041e8                df
 .text.list_fd  0x080042d0      0x12c build\kernel\components\dfs\src\dfs.o
                0x080042d0                list_fd
 .text.dfs_init
                0x080043fc       0x74 build\kernel\components\dfs\src\dfs.o
                0x080043fc                dfs_init
 .text.dfs_lock
                0x08004470       0x30 build\kernel\components\dfs\src\dfs.o
                0x08004470                dfs_lock
 .text.dfs_unlock
                0x080044a0        0xc build\kernel\components\dfs\src\dfs.o
                0x080044a0                dfs_unlock
 .text.fd_new   0x080044ac      0x134 build\kernel\components\dfs\src\dfs.o
                0x080044ac                fd_new
 .text.fd_get   0x080045e0       0x70 build\kernel\components\dfs\src\dfs.o
                0x080045e0                fd_get
 .text.fd_put   0x08004650       0x88 build\kernel\components\dfs\src\dfs.o
                0x08004650                fd_put
 .text.dfs_subdir
                0x080046d8       0x28 build\kernel\components\dfs\src\dfs.o
                0x080046d8                dfs_subdir
 .text.dfs_normalize_path
                0x08004700      0x16c build\kernel\components\dfs\src\dfs.o
                0x08004700                dfs_normalize_path
 .text.fd_is_open
                0x0800486c       0xd4 build\kernel\components\dfs\src\dfs.o
                0x0800486c                fd_is_open
 .text.dfs_file_open
                0x08004940       0xcc build\kernel\components\dfs\src\dfs_file.o
                0x08004940                dfs_file_open
 .text.copyfile
                0x08004a0c      0x118 build\kernel\components\dfs\src\dfs_file.o
 .text.dfs_file_close
                0x08004b24       0x28 build\kernel\components\dfs\src\dfs_file.o
                0x08004b24                dfs_file_close
 .text.dfs_file_read
                0x08004b4c       0x2c build\kernel\components\dfs\src\dfs_file.o
                0x08004b4c                dfs_file_read
 .text.dfs_file_getdents
                0x08004b78       0x20 build\kernel\components\dfs\src\dfs_file.o
                0x08004b78                dfs_file_getdents
 .text.dfs_file_unlink
                0x08004b98       0x84 build\kernel\components\dfs\src\dfs_file.o
                0x08004b98                dfs_file_unlink
 .text.dfs_file_write
                0x08004c1c       0x18 build\kernel\components\dfs\src\dfs_file.o
                0x08004c1c                dfs_file_write
 .text.dfs_file_lseek
                0x08004c34       0x24 build\kernel\components\dfs\src\dfs_file.o
                0x08004c34                dfs_file_lseek
 .text.dfs_file_stat
                0x08004c58       0xe4 build\kernel\components\dfs\src\dfs_file.o
                0x08004c58                dfs_file_stat
 .text.copydir  0x08004d3c      0x11c build\kernel\components\dfs\src\dfs_file.o
 .text.dfs_file_rename
                0x08004e58       0x8c build\kernel\components\dfs\src\dfs_file.o
                0x08004e58                dfs_file_rename
 .text.ls       0x08004ee4      0x118 build\kernel\components\dfs\src\dfs_file.o
                0x08004ee4                ls
 .text.cat      0x08004ffc       0x88 build\kernel\components\dfs\src\dfs_file.o
                0x08004ffc                cat
 .text.copy     0x08005084      0x114 build\kernel\components\dfs\src\dfs_file.o
                0x08005084                copy
 .text.rt_completion_init
                0x08005198       0x34 build\kernel\components\drivers\ipc\completion.o
                0x08005198                rt_completion_init
 .text.rt_completion_wait
                0x080051cc      0x140 build\kernel\components\drivers\ipc\completion.o
                0x080051cc                rt_completion_wait
 .text.rt_completion_done
                0x0800530c       0x54 build\kernel\components\drivers\ipc\completion.o
                0x0800530c                rt_completion_done
 .text.rt_data_queue_init
                0x08005360       0x6c build\kernel\components\drivers\ipc\dataqueue.o
                0x08005360                rt_data_queue_init
 .text.rt_data_queue_push
                0x080053cc      0x1ec build\kernel\components\drivers\ipc\dataqueue.o
                0x080053cc                rt_data_queue_push
 .text.rt_data_queue_peek
                0x080055b8       0x74 build\kernel\components\drivers\ipc\dataqueue.o
                0x080055b8                rt_data_queue_peek
 .text.rt_data_queue_reset
                0x0800562c       0xac build\kernel\components\drivers\ipc\dataqueue.o
                0x0800562c                rt_data_queue_reset
 .text.rt_data_queue_deinit
                0x080056d8       0x54 build\kernel\components\drivers\ipc\dataqueue.o
                0x080056d8                rt_data_queue_deinit
 .text.rt_data_queue_len
                0x0800572c       0x6c build\kernel\components\drivers\ipc\dataqueue.o
                0x0800572c                rt_data_queue_len
 .text.rt_data_queue_pop
                0x08005798      0x264 build\kernel\components\drivers\ipc\dataqueue.o
                0x08005798                rt_data_queue_pop
 .text._pin_control
                0x080059fc       0x34 build\kernel\components\drivers\misc\pin.o
 .text._pin_cmd_print_usage
                0x08005a30       0x58 build\kernel\components\drivers\misc\pin.o
 .text._pin_write
                0x08005a88       0x38 build\kernel\components\drivers\misc\pin.o
 .text._pin_read
                0x08005ac0       0x3c build\kernel\components\drivers\misc\pin.o
 .text.rt_device_pin_register
                0x08005afc       0x44 build\kernel\components\drivers\misc\pin.o
                0x08005afc                rt_device_pin_register
 .text.rt_pin_attach_irq
                0x08005b40       0x54 build\kernel\components\drivers\misc\pin.o
                0x08005b40                rt_pin_attach_irq
 .text.rt_pin_irq_enable
                0x08005b94       0x3c build\kernel\components\drivers\misc\pin.o
                0x08005b94                rt_pin_irq_enable
 .text.rt_pin_mode
                0x08005bd0       0x34 build\kernel\components\drivers\misc\pin.o
                0x08005bd0                rt_pin_mode
 .text.rt_pin_write
                0x08005c04       0x34 build\kernel\components\drivers\misc\pin.o
                0x08005c04                rt_pin_write
 .text.rt_pin_read
                0x08005c38       0x30 build\kernel\components\drivers\misc\pin.o
                0x08005c38                rt_pin_read
 .text.rt_pin_get
                0x08005c68       0x48 build\kernel\components\drivers\misc\pin.o
                0x08005c68                rt_pin_get
 .text._pin_cmd_conv
                0x08005cb0       0x70 build\kernel\components\drivers\misc\pin.o
 .text._pin_cmd
                0x08005d20      0x230 build\kernel\components\drivers\misc\pin.o
 .text.rt_serial_control
                0x08005f50       0xa0 build\kernel\components\drivers\serial\serial.o
 .text._serial_fifo_calc_recved_len
                0x08005ff0       0x48 build\kernel\components\drivers\serial\serial.o
 .text.rt_serial_init
                0x08006038       0x38 build\kernel\components\drivers\serial\serial.o
 .text.rt_serial_open
                0x08006070      0x228 build\kernel\components\drivers\serial\serial.o
 .text.rt_serial_write
                0x08006298      0x118 build\kernel\components\drivers\serial\serial.o
 .text.rt_serial_read
                0x080063b0      0x24c build\kernel\components\drivers\serial\serial.o
 .text.rt_serial_close
                0x080065fc      0x140 build\kernel\components\drivers\serial\serial.o
 .text.rt_hw_serial_register
                0x0800673c       0x6c build\kernel\components\drivers\serial\serial.o
                0x0800673c                rt_hw_serial_register
 .text.rt_hw_serial_isr
                0x080067a8      0x244 build\kernel\components\drivers\serial\serial.o
                0x080067a8                rt_hw_serial_isr
 .text.finsh_rx_ind
                0x080069ec       0x30 build\kernel\components\finsh\shell.o
 .text.finsh_get_prompt.part.0
                0x08006a1c       0x50 build\kernel\components\finsh\shell.o
 .text.finsh_system_init
                0x08006a6c       0xa8 build\kernel\components\finsh\shell.o
                0x08006a6c                finsh_system_init
 .text.finsh_get_prompt
                0x08006b14       0x28 build\kernel\components\finsh\shell.o
                0x08006b14                finsh_get_prompt
 .text.finsh_getchar
                0x08006b3c       0x70 build\kernel\components\finsh\shell.o
                0x08006b3c                finsh_getchar
 .text.finsh_set_device
                0x08006bac       0x94 build\kernel\components\finsh\shell.o
                0x08006bac                finsh_set_device
 .text.finsh_thread_entry
                0x08006c40      0x46c build\kernel\components\finsh\shell.o
                0x08006c40                finsh_thread_entry
 .text.msh_help
                0x080070ac       0x48 build\kernel\components\finsh\msh.o
                0x080070ac                msh_help
 .text.cmd_ps   0x080070f4        0xc build\kernel\components\finsh\msh.o
                0x080070f4                cmd_ps
 .text.cmd_free
                0x08007100       0x50 build\kernel\components\finsh\msh.o
                0x08007100                cmd_free
 .text.msh_auto_complete_path.part.0
                0x08007150      0x1a0 build\kernel\components\finsh\msh.o
 .text.msh_exec
                0x080072f0      0x1cc build\kernel\components\finsh\msh.o
                0x080072f0                msh_exec
 .text.msh_auto_complete
                0x080074bc      0x104 build\kernel\components\finsh\msh.o
                0x080074bc                msh_auto_complete
 .text.msh_isint
                0x080075c0       0x34 build\kernel\components\finsh\msh_parse.o
                0x080075c0                msh_isint
 .text.clear    0x080075f4       0x10 build\kernel\components\finsh\cmd.o
 .text.version  0x08007604        0xc build\kernel\components\finsh\cmd.o
                0x08007604                version
 .text.list_get_next.part.0
                0x08007610       0x58 build\kernel\components\finsh\cmd.o
 .text.list_thread
                0x08007668      0x194 build\kernel\components\finsh\cmd.o
                0x08007668                list_thread
 .text.list_mutex
                0x080077fc       0xf4 build\kernel\components\finsh\cmd.o
                0x080077fc                list_mutex
 .text.list_device
                0x080078f0       0xf8 build\kernel\components\finsh\cmd.o
                0x080078f0                list_device
 .text.list_timer
                0x080079e8      0x118 build\kernel\components\finsh\cmd.o
                0x080079e8                list_timer
 .text.list_mempool
                0x08007b00      0x158 build\kernel\components\finsh\cmd.o
                0x08007b00                list_mempool
 .text.list_event
                0x08007c58      0x148 build\kernel\components\finsh\cmd.o
                0x08007c58                list_event
 .text.list_sem
                0x08007da0      0x14c build\kernel\components\finsh\cmd.o
                0x08007da0                list_sem
 .text.list_msgqueue
                0x08007eec      0x14c build\kernel\components\finsh\cmd.o
                0x08007eec                list_msgqueue
 .text.list_mailbox
                0x08008038      0x158 build\kernel\components\finsh\cmd.o
                0x08008038                list_mailbox
 .text.cmd_list
                0x08008190      0x164 build\kernel\components\finsh\cmd.o
                0x08008190                cmd_list
 .text.cmd_ls   0x080082f4       0x18 build\kernel\components\finsh\msh_file.o
 .text.cmd_pwd  0x0800830c       0x18 build\kernel\components\finsh\msh_file.o
 .text.directory_delete_for_msh
                0x08008324      0x10c build\kernel\components\finsh\msh_file.o
 .text.cmd_rm   0x08008430      0x114 build\kernel\components\finsh\msh_file.o
 .text.cmd_mkfs
                0x08008544       0x60 build\kernel\components\finsh\msh_file.o
 .text.cmd_mount
                0x080085a4       0xac build\kernel\components\finsh\msh_file.o
 .text.cmd_umount
                0x08008650       0x4c build\kernel\components\finsh\msh_file.o
 .text.cmd_tail
                0x0800869c      0x130 build\kernel\components\finsh\msh_file.o
 .text.cmd_cp   0x080087cc       0x2c build\kernel\components\finsh\msh_file.o
 .text.cmd_mv   0x080087f8       0xdc build\kernel\components\finsh\msh_file.o
 .text.cmd_cat  0x080088d4       0x38 build\kernel\components\finsh\msh_file.o
 .text.cmd_cd   0x0800890c       0x3c build\kernel\components\finsh\msh_file.o
 .text.cmd_mkdir
                0x08008948       0x2c build\kernel\components\finsh\msh_file.o
 .text.cmd_df   0x08008974       0x4c build\kernel\components\finsh\msh_file.o
 .text.cmd_echo
                0x080089c0       0x68 build\kernel\components\finsh\msh_file.o
 .text.msh_exec_script
                0x08008a28      0x17c build\kernel\components\finsh\msh_file.o
                0x08008a28                msh_exec_script
 .text.strnlen  0x08008ba4       0x24 build\kernel\components\libc\compilers\common\cstring.o
                0x08008ba4                strnlen
 .text.__libc_init_array
                0x08008bc8        0x4 build\kernel\components\libc\compilers\newlib\syscalls.o
                0x08008bc8                __libc_init_array
 .text.__errno  0x08008bcc        0x4 build\kernel\components\libc\compilers\newlib\syscalls.o
                0x08008bcc                __errno
 .text.HAL_RCCEx_PeriphCLKConfig
                0x08008bd0      0x104 libraries\STM32F1xx_HAL\STM32F1xx_HAL_Driver\Src\stm32f1xx_hal_rcc_ex.o
                0x08008bd0                HAL_RCCEx_PeriphCLKConfig
 .text.HAL_NVIC_SetPriorityGrouping
                0x08008cd4       0x24 libraries\STM32F1xx_HAL\STM32F1xx_HAL_Driver\Src\stm32f1xx_hal_cortex.o
                0x08008cd4                HAL_NVIC_SetPriorityGrouping
 .text.HAL_NVIC_SetPriority
                0x08008cf8       0x7c libraries\STM32F1xx_HAL\STM32F1xx_HAL_Driver\Src\stm32f1xx_hal_cortex.o
                0x08008cf8                HAL_NVIC_SetPriority
 .text.HAL_NVIC_EnableIRQ
                0x08008d74       0x1c libraries\STM32F1xx_HAL\STM32F1xx_HAL_Driver\Src\stm32f1xx_hal_cortex.o
                0x08008d74                HAL_NVIC_EnableIRQ
 .text.HAL_NVIC_DisableIRQ
                0x08008d90       0x28 libraries\STM32F1xx_HAL\STM32F1xx_HAL_Driver\Src\stm32f1xx_hal_cortex.o
                0x08008d90                HAL_NVIC_DisableIRQ
 .text.HAL_SYSTICK_Config
                0x08008db8       0x30 libraries\STM32F1xx_HAL\STM32F1xx_HAL_Driver\Src\stm32f1xx_hal_cortex.o
                0x08008db8                HAL_SYSTICK_Config
 .text.HAL_RCC_OscConfig
                0x08008de8      0x3e0 libraries\STM32F1xx_HAL\STM32F1xx_HAL_Driver\Src\stm32f1xx_hal_rcc.o
                0x08008de8                HAL_RCC_OscConfig
 .text.HAL_RCC_GetSysClockFreq
                0x080091c8       0x78 libraries\STM32F1xx_HAL\STM32F1xx_HAL_Driver\Src\stm32f1xx_hal_rcc.o
                0x080091c8                HAL_RCC_GetSysClockFreq
 .text.HAL_RCC_ClockConfig
                0x08009240      0x140 libraries\STM32F1xx_HAL\STM32F1xx_HAL_Driver\Src\stm32f1xx_hal_rcc.o
                0x08009240                HAL_RCC_ClockConfig
 .text.HAL_RCC_GetPCLK1Freq
                0x08009380       0x20 libraries\STM32F1xx_HAL\STM32F1xx_HAL_Driver\Src\stm32f1xx_hal_rcc.o
                0x08009380                HAL_RCC_GetPCLK1Freq
 .text.HAL_RCC_GetPCLK2Freq
                0x080093a0       0x20 libraries\STM32F1xx_HAL\STM32F1xx_HAL_Driver\Src\stm32f1xx_hal_rcc.o
                0x080093a0                HAL_RCC_GetPCLK2Freq
 .text.HAL_DMA_Init
                0x080093c0       0x64 libraries\STM32F1xx_HAL\STM32F1xx_HAL_Driver\Src\stm32f1xx_hal_dma.o
                0x080093c0                HAL_DMA_Init
 .text.HAL_DMA_DeInit
                0x08009424       0x58 libraries\STM32F1xx_HAL\STM32F1xx_HAL_Driver\Src\stm32f1xx_hal_dma.o
                0x08009424                HAL_DMA_DeInit
 .text.HAL_DMA_Start_IT
                0x0800947c       0x90 libraries\STM32F1xx_HAL\STM32F1xx_HAL_Driver\Src\stm32f1xx_hal_dma.o
                0x0800947c                HAL_DMA_Start_IT
 .text.HAL_DMA_Abort
                0x0800950c       0x44 libraries\STM32F1xx_HAL\STM32F1xx_HAL_Driver\Src\stm32f1xx_hal_dma.o
                0x0800950c                HAL_DMA_Abort
 .text.HAL_DMA_Abort_IT
                0x08009550       0x94 libraries\STM32F1xx_HAL\STM32F1xx_HAL_Driver\Src\stm32f1xx_hal_dma.o
                0x08009550                HAL_DMA_Abort_IT
 .text.SystemInit
                0x080095e4        0x4 libraries\STM32F1xx_HAL\CMSIS\Device\ST\STM32F1xx\Source\Templates\system_stm32f1xx.o
                0x080095e4                SystemInit
 .text.UART_SetConfig
                0x080095e8       0x84 libraries\STM32F1xx_HAL\STM32F1xx_HAL_Driver\Src\stm32f1xx_hal_uart.o
 .text.HAL_UART_Init
                0x0800966c       0x60 libraries\STM32F1xx_HAL\STM32F1xx_HAL_Driver\Src\stm32f1xx_hal_uart.o
                0x0800966c                HAL_UART_Init
 .text.HAL_UART_DeInit
                0x080096cc       0x34 libraries\STM32F1xx_HAL\STM32F1xx_HAL_Driver\Src\stm32f1xx_hal_uart.o
                0x080096cc                HAL_UART_DeInit
 .text.HAL_UART_Transmit_DMA
                0x08009700       0x78 libraries\STM32F1xx_HAL\STM32F1xx_HAL_Driver\Src\stm32f1xx_hal_uart.o
                0x08009700                HAL_UART_Transmit_DMA
 .text.UART_DMATransmitCplt
                0x08009778       0x2c libraries\STM32F1xx_HAL\STM32F1xx_HAL_Driver\Src\stm32f1xx_hal_uart.o
 .text.HAL_UART_TxHalfCpltCallback
                0x080097a4        0x4 libraries\STM32F1xx_HAL\STM32F1xx_HAL_Driver\Src\stm32f1xx_hal_uart.o
                0x080097a4                HAL_UART_TxHalfCpltCallback
 .text.UART_DMATxHalfCplt
                0x080097a8        0xc libraries\STM32F1xx_HAL\STM32F1xx_HAL_Driver\Src\stm32f1xx_hal_uart.o
 .text.UART_DMAError
                0x080097b4       0x7c libraries\STM32F1xx_HAL\STM32F1xx_HAL_Driver\Src\stm32f1xx_hal_uart.o
 .text.UART_DMAAbortOnError
                0x08009830       0x10 libraries\STM32F1xx_HAL\STM32F1xx_HAL_Driver\Src\stm32f1xx_hal_uart.o
 .text.HAL_UARTEx_RxEventCallback
                0x08009840        0x4 libraries\STM32F1xx_HAL\STM32F1xx_HAL_Driver\Src\stm32f1xx_hal_uart.o
                0x08009840                HAL_UARTEx_RxEventCallback
 .text.UART_DMARxHalfCplt
                0x08009844       0x1c libraries\STM32F1xx_HAL\STM32F1xx_HAL_Driver\Src\stm32f1xx_hal_uart.o
 .text.UART_DMAReceiveCplt
                0x08009860       0x54 libraries\STM32F1xx_HAL\STM32F1xx_HAL_Driver\Src\stm32f1xx_hal_uart.o
 .text.UART_Receive_IT.part.0.isra.0
                0x080098b4       0xb8 libraries\STM32F1xx_HAL\STM32F1xx_HAL_Driver\Src\stm32f1xx_hal_uart.o
 .text.HAL_UART_IRQHandler
                0x0800996c      0x268 libraries\STM32F1xx_HAL\STM32F1xx_HAL_Driver\Src\stm32f1xx_hal_uart.o
                0x0800996c                HAL_UART_IRQHandler
 .text.UART_Start_Receive_DMA
                0x08009bd4       0x70 libraries\STM32F1xx_HAL\STM32F1xx_HAL_Driver\Src\stm32f1xx_hal_uart.o
                0x08009bd4                UART_Start_Receive_DMA
 .text.HAL_UART_Receive_DMA
                0x08009c44       0x38 libraries\STM32F1xx_HAL\STM32F1xx_HAL_Driver\Src\stm32f1xx_hal_uart.o
                0x08009c44                HAL_UART_Receive_DMA
 .text.HAL_Init
                0x08009c7c       0x24 libraries\STM32F1xx_HAL\STM32F1xx_HAL_Driver\Src\stm32f1xx_hal.o
                0x08009c7c                HAL_Init
 .text.HAL_GPIO_Init
                0x08009ca0      0x21c libraries\STM32F1xx_HAL\STM32F1xx_HAL_Driver\Src\stm32f1xx_hal_gpio.o
                0x08009ca0                HAL_GPIO_Init
 .text.HAL_GPIO_DeInit
                0x08009ebc      0x110 libraries\STM32F1xx_HAL\STM32F1xx_HAL_Driver\Src\stm32f1xx_hal_gpio.o
                0x08009ebc                HAL_GPIO_DeInit
 .text.HAL_GPIO_ReadPin
                0x08009fcc        0xc libraries\STM32F1xx_HAL\STM32F1xx_HAL_Driver\Src\stm32f1xx_hal_gpio.o
                0x08009fcc                HAL_GPIO_ReadPin
 .text.HAL_GPIO_WritePin
                0x08009fd8        0x8 libraries\STM32F1xx_HAL\STM32F1xx_HAL_Driver\Src\stm32f1xx_hal_gpio.o
                0x08009fd8                HAL_GPIO_WritePin
 .text.HAL_GPIO_EXTI_IRQHandler
                0x08009fe0       0x18 libraries\STM32F1xx_HAL\STM32F1xx_HAL_Driver\Src\stm32f1xx_hal_gpio.o
                0x08009fe0                HAL_GPIO_EXTI_IRQHandler
 .text.stm32_pin_get
                0x08009ff8       0x5c libraries\HAL_Drivers\drv_gpio.o
 .text.stm32_pin_dettach_irq
                0x0800a054       0x74 libraries\HAL_Drivers\drv_gpio.o
 .text.stm32_pin_attach_irq
                0x0800a0c8       0xa4 libraries\HAL_Drivers\drv_gpio.o
 .text.stm32_pin_mode
                0x0800a16c       0x58 libraries\HAL_Drivers\drv_gpio.o
 .text.stm32_pin_irq_enable
                0x0800a1c4      0x164 libraries\HAL_Drivers\drv_gpio.o
 .text.stm32_pin_read
                0x0800a328       0x28 libraries\HAL_Drivers\drv_gpio.o
 .text.stm32_pin_write
                0x0800a350       0x24 libraries\HAL_Drivers\drv_gpio.o
 .text.HAL_GPIO_EXTI_Callback
                0x0800a374       0x34 libraries\HAL_Drivers\drv_gpio.o
                0x0800a374                HAL_GPIO_EXTI_Callback
 .text.EXTI0_IRQHandler
                0x0800a3a8       0x14 libraries\HAL_Drivers\drv_gpio.o
                0x0800a3a8                EXTI0_IRQHandler
 .text.EXTI1_IRQHandler
                0x0800a3bc       0x14 libraries\HAL_Drivers\drv_gpio.o
                0x0800a3bc                EXTI1_IRQHandler
 .text.EXTI2_IRQHandler
                0x0800a3d0       0x14 libraries\HAL_Drivers\drv_gpio.o
                0x0800a3d0                EXTI2_IRQHandler
 .text.EXTI3_IRQHandler
                0x0800a3e4       0x14 libraries\HAL_Drivers\drv_gpio.o
                0x0800a3e4                EXTI3_IRQHandler
 .text.EXTI4_IRQHandler
                0x0800a3f8       0x14 libraries\HAL_Drivers\drv_gpio.o
                0x0800a3f8                EXTI4_IRQHandler
 .text.EXTI9_5_IRQHandler
                0x0800a40c       0x30 libraries\HAL_Drivers\drv_gpio.o
                0x0800a40c                EXTI9_5_IRQHandler
 .text.EXTI15_10_IRQHandler
                0x0800a43c       0x40 libraries\HAL_Drivers\drv_gpio.o
                0x0800a43c                EXTI15_10_IRQHandler
 .text.rt_hw_pin_init
                0x0800a47c       0x7c libraries\HAL_Drivers\drv_gpio.o
                0x0800a47c                rt_hw_pin_init
 .text.stm32_putc
                0x0800a4f8       0x34 libraries\HAL_Drivers\drv_usart.o
 .text.stm32_getc
                0x0800a52c       0x58 libraries\HAL_Drivers\drv_usart.o
 .text.stm32_control
                0x0800a584      0x308 libraries\HAL_Drivers\drv_usart.o
 .text.stm32_configure
                0x0800a88c       0xdc libraries\HAL_Drivers\drv_usart.o
 .text.dma_isr  0x0800a968       0x50 libraries\HAL_Drivers\drv_usart.o
 .text.stm32_dma_transmit
                0x0800a9b8       0x58 libraries\HAL_Drivers\drv_usart.o
 .text.USART1_IRQHandler
                0x0800aa10      0x150 libraries\HAL_Drivers\drv_usart.o
                0x0800aa10                USART1_IRQHandler
 .text.HAL_UART_ErrorCallback
                0x0800ab60       0x18 libraries\HAL_Drivers\drv_usart.o
                0x0800ab60                HAL_UART_ErrorCallback
 .text.HAL_UART_RxCpltCallback
                0x0800ab78       0x34 libraries\HAL_Drivers\drv_usart.o
                0x0800ab78                HAL_UART_RxCpltCallback
 .text.HAL_UART_RxHalfCpltCallback
                0x0800abac       0x34 libraries\HAL_Drivers\drv_usart.o
                0x0800abac                HAL_UART_RxHalfCpltCallback
 .text.HAL_UART_TxCpltCallback
                0x0800abe0       0x3c libraries\HAL_Drivers\drv_usart.o
                0x0800abe0                HAL_UART_TxCpltCallback
 .text.rt_hw_usart_init
                0x0800ac1c       0x68 libraries\HAL_Drivers\drv_usart.o
                0x0800ac1c                rt_hw_usart_init
 .text.reboot   0x0800ac84        0x4 libraries\HAL_Drivers\drv_common.o
 .text.SysTick_Handler
                0x0800ac88       0x30 libraries\HAL_Drivers\drv_common.o
                0x0800ac88                SysTick_Handler
 .text.HAL_GetTick
                0x0800acb8       0x24 libraries\HAL_Drivers\drv_common.o
                0x0800acb8                HAL_GetTick
 .text.HAL_InitTick
                0x0800acdc       0x38 libraries\HAL_Drivers\drv_common.o
                0x0800acdc                HAL_InitTick
 .text._Error_Handler
                0x0800ad14       0x2c libraries\HAL_Drivers\drv_common.o
                0x0800ad14                _Error_Handler
 .text.rt_hw_board_init
                0x0800ad40       0x34 libraries\HAL_Drivers\drv_common.o
                0x0800ad40                rt_hw_board_init
 .text.atoi     0x0800ad74        0x8 g:/rt-threadstudio/platform/env_released/env/tools/gnu_gcc/arm_gcc/mingw/bin/../lib/gcc/arm-none-eabi/10.3.1/../../../../arm-none-eabi/lib/thumb/v7-m/nofp\libc.a(lib_a-atoi.o)
                0x0800ad74                atoi
 .text.memcmp   0x0800ad7c       0x68 g:/rt-threadstudio/platform/env_released/env/tools/gnu_gcc/arm_gcc/mingw/bin/../lib/gcc/arm-none-eabi/10.3.1/../../../../arm-none-eabi/lib/thumb/v7-m/nofp\libc.a(lib_a-memcmp.o)
                0x0800ad7c                memcmp
 .text.memset   0x0800ade4       0xa4 g:/rt-threadstudio/platform/env_released/env/tools/gnu_gcc/arm_gcc/mingw/bin/../lib/gcc/arm-none-eabi/10.3.1/../../../../arm-none-eabi/lib/thumb/v7-m/nofp\libc.a(lib_a-memset.o)
                0x0800ade4                memset
 .text.strchr   0x0800ae88       0xcc g:/rt-threadstudio/platform/env_released/env/tools/gnu_gcc/arm_gcc/mingw/bin/../lib/gcc/arm-none-eabi/10.3.1/../../../../arm-none-eabi/lib/thumb/v7-m/nofp\libc.a(lib_a-strchr.o)
                0x0800ae88                strchr
 .text.strlen   0x0800af54       0x5c g:/rt-threadstudio/platform/env_released/env/tools/gnu_gcc/arm_gcc/mingw/bin/../lib/gcc/arm-none-eabi/10.3.1/../../../../arm-none-eabi/lib/thumb/v7-m/nofp\libc.a(lib_a-strlen-stub.o)
                0x0800af54                strlen
 .text.strncat  0x0800afb0       0x5c g:/rt-threadstudio/platform/env_released/env/tools/gnu_gcc/arm_gcc/mingw/bin/../lib/gcc/arm-none-eabi/10.3.1/../../../../arm-none-eabi/lib/thumb/v7-m/nofp\libc.a(lib_a-strncat.o)
                0x0800afb0                strncat
 .text.strncmp  0x0800b00c       0x7c g:/rt-threadstudio/platform/env_released/env/tools/gnu_gcc/arm_gcc/mingw/bin/../lib/gcc/arm-none-eabi/10.3.1/../../../../arm-none-eabi/lib/thumb/v7-m/nofp\libc.a(lib_a-strncmp.o)
                0x0800b00c                strncmp
 .text.strncpy  0x0800b088       0x68 g:/rt-threadstudio/platform/env_released/env/tools/gnu_gcc/arm_gcc/mingw/bin/../lib/gcc/arm-none-eabi/10.3.1/../../../../arm-none-eabi/lib/thumb/v7-m/nofp\libc.a(lib_a-strncpy.o)
                0x0800b088                strncpy
 .text.strrchr  0x0800b0f0       0x24 g:/rt-threadstudio/platform/env_released/env/tools/gnu_gcc/arm_gcc/mingw/bin/../lib/gcc/arm-none-eabi/10.3.1/../../../../arm-none-eabi/lib/thumb/v7-m/nofp\libc.a(lib_a-strrchr.o)
                0x0800b0f0                strrchr
 .text.two_way_long_needle
                0x0800b114      0x2b8 g:/rt-threadstudio/platform/env_released/env/tools/gnu_gcc/arm_gcc/mingw/bin/../lib/gcc/arm-none-eabi/10.3.1/../../../../arm-none-eabi/lib/thumb/v7-m/nofp\libc.a(lib_a-strstr.o)
 .text.strstr   0x0800b3cc      0x168 g:/rt-threadstudio/platform/env_released/env/tools/gnu_gcc/arm_gcc/mingw/bin/../lib/gcc/arm-none-eabi/10.3.1/../../../../arm-none-eabi/lib/thumb/v7-m/nofp\libc.a(lib_a-strstr.o)
                0x0800b3cc                strstr
 .text._strtol_l.part.0
                0x0800b534      0x120 g:/rt-threadstudio/platform/env_released/env/tools/gnu_gcc/arm_gcc/mingw/bin/../lib/gcc/arm-none-eabi/10.3.1/../../../../arm-none-eabi/lib/thumb/v7-m/nofp\libc.a(lib_a-strtol.o)
 .text.strtol   0x0800b654       0x2c g:/rt-threadstudio/platform/env_released/env/tools/gnu_gcc/arm_gcc/mingw/bin/../lib/gcc/arm-none-eabi/10.3.1/../../../../arm-none-eabi/lib/thumb/v7-m/nofp\libc.a(lib_a-strtol.o)
                0x0800b654                strtol
 .text.startup.register_fini
                0x0800b680       0x14 g:/rt-threadstudio/platform/env_released/env/tools/gnu_gcc/arm_gcc/mingw/bin/../lib/gcc/arm-none-eabi/10.3.1/../../../../arm-none-eabi/lib/thumb/v7-m/nofp\libc.a(lib_a-__call_atexit.o)
 .text.atexit   0x0800b694        0xc g:/rt-threadstudio/platform/env_released/env/tools/gnu_gcc/arm_gcc/mingw/bin/../lib/gcc/arm-none-eabi/10.3.1/../../../../arm-none-eabi/lib/thumb/v7-m/nofp\libc.a(lib_a-atexit.o)
                0x0800b694                atexit
 .text.__libc_fini_array
                0x0800b6a0       0x2c g:/rt-threadstudio/platform/env_released/env/tools/gnu_gcc/arm_gcc/mingw/bin/../lib/gcc/arm-none-eabi/10.3.1/../../../../arm-none-eabi/lib/thumb/v7-m/nofp\libc.a(lib_a-fini.o)
                0x0800b6a0                __libc_fini_array
 .text.__retarget_lock_acquire_recursive
                0x0800b6cc        0x4 g:/rt-threadstudio/platform/env_released/env/tools/gnu_gcc/arm_gcc/mingw/bin/../lib/gcc/arm-none-eabi/10.3.1/../../../../arm-none-eabi/lib/thumb/v7-m/nofp\libc.a(lib_a-lock.o)
                0x0800b6cc                __retarget_lock_acquire_recursive
 .text.__retarget_lock_release_recursive
                0x0800b6d0        0x4 g:/rt-threadstudio/platform/env_released/env/tools/gnu_gcc/arm_gcc/mingw/bin/../lib/gcc/arm-none-eabi/10.3.1/../../../../arm-none-eabi/lib/thumb/v7-m/nofp\libc.a(lib_a-lock.o)
                0x0800b6d0                __retarget_lock_release_recursive
 .text.__register_exitproc
                0x0800b6d4       0x8c g:/rt-threadstudio/platform/env_released/env/tools/gnu_gcc/arm_gcc/mingw/bin/../lib/gcc/arm-none-eabi/10.3.1/../../../../arm-none-eabi/lib/thumb/v7-m/nofp\libc.a(lib_a-__atexit.o)
                0x0800b6d4                __register_exitproc
 *(.rodata)
 .rodata        0x0800b760        0xc build\kernel\components\dfs\src\dfs_fs.o
 .rodata        0x0800b76c        0x8 libraries\HAL_Drivers\drv_usart.o
 *(.rodata*)
 .rodata.KEY_IRQHandler.str1.4
                0x0800b774       0x28 build\board\ports\user_key.o
 .rodata.SystemClock_Config.str1.4
                0x0800b79c        0xe build\board\board.o
 *fill*         0x0800b7aa        0x2 00000000
 .rodata.plug_holes.str1.4
                0x0800b7ac       0x52 build\kernel\src\mem.o
 *fill*         0x0800b7fe        0x2 00000000
 .rodata.rt_smem_init.str1.4
                0x0800b800       0x42 build\kernel\src\mem.o
 *fill*         0x0800b842        0x2 00000000
 .rodata.rt_smem_detach.str1.4
                0x0800b844       0x62 build\kernel\src\mem.o
                                 0x72 (size before relaxing)
 *fill*         0x0800b8a6        0x2 00000000
 .rodata.rt_smem_alloc.str1.4
                0x0800b8a8       0xcb build\kernel\src\mem.o
 *fill*         0x0800b973        0x1 00000000
 .rodata.rt_smem_free.str1.4
                0x0800b974      0x183 build\kernel\src\mem.o
 *fill*         0x0800baf7        0x1 00000000
 .rodata.rt_smem_realloc.str1.4
                0x0800baf8       0x6f build\kernel\src\mem.o
 *fill*         0x0800bb67        0x1 00000000
 .rodata.__FUNCTION__.0
                0x0800bb68        0xd build\kernel\src\mem.o
 *fill*         0x0800bb75        0x3 00000000
 .rodata.__FUNCTION__.1
                0x0800bb78        0xb build\kernel\src\mem.o
 *fill*         0x0800bb83        0x1 00000000
 .rodata.__FUNCTION__.2
                0x0800bb84       0x10 build\kernel\src\mem.o
 .rodata.__FUNCTION__.3
                0x0800bb94        0xe build\kernel\src\mem.o
 *fill*         0x0800bba2        0x2 00000000
 .rodata.rt_timer_init.str1.4
                0x0800bba4       0x3f build\kernel\src\timer.o
 *fill*         0x0800bbe3        0x1 00000000
 .rodata.rt_timer_detach.str1.4
                0x0800bbe4       0x66 build\kernel\src\timer.o
 *fill*         0x0800bc4a        0x2 00000000
 .rodata.rt_timer_control.str1.4
                0x0800bc4c       0x26 build\kernel\src\timer.o
 *fill*         0x0800bc72        0x2 00000000
 .rodata.rt_system_timer_thread_init.str1.4
                0x0800bc74        0x6 build\kernel\src\timer.o
 *fill*         0x0800bc7a        0x2 00000000
 .rodata.__FUNCTION__.0
                0x0800bc7c       0x11 build\kernel\src\timer.o
 *fill*         0x0800bc8d        0x3 00000000
 .rodata.__FUNCTION__.1
                0x0800bc90        0xe build\kernel\src\timer.o
 *fill*         0x0800bc9e        0x2 00000000
 .rodata.__FUNCTION__.3
                0x0800bca0        0xf build\kernel\src\timer.o
 *fill*         0x0800bcaf        0x1 00000000
 .rodata.__FUNCTION__.6
                0x0800bcb0       0x10 build\kernel\src\timer.o
 .rodata.__FUNCTION__.7
                0x0800bcc0        0xe build\kernel\src\timer.o
 *fill*         0x0800bcce        0x2 00000000
 .rodata.rt_application_init.str1.4
                0x0800bcd0       0x17 build\kernel\src\components.o
 *fill*         0x0800bce7        0x1 00000000
 .rodata.__FUNCTION__.0
                0x0800bce8       0x14 build\kernel\src\components.o
 .rodata._thread_timeout.str1.4
                0x0800bcfc       0x92 build\kernel\src\thread.o
 *fill*         0x0800bd8e        0x2 00000000
 .rodata._thread_init.constprop.0.str1.4
                0x0800bd90       0x22 build\kernel\src\thread.o
 *fill*         0x0800bdb2        0x2 00000000
 .rodata.rt_thread_init.str1.4
                0x0800bdb4       0x17 build\kernel\src\thread.o
 *fill*         0x0800bdcb        0x1 00000000
 .rodata.rt_thread_detach.str1.4
                0x0800bdcc       0x2f build\kernel\src\thread.o
 *fill*         0x0800bdfb        0x1 00000000
 .rodata.rt_thread_delete.str1.4
                0x0800bdfc       0x3b build\kernel\src\thread.o
 *fill*         0x0800be37        0x1 00000000
 .rodata.rt_thread_suspend.str1.4
                0x0800be38       0x1b build\kernel\src\thread.o
 *fill*         0x0800be53        0x1 00000000
 .rodata.rt_thread_startup.str1.4
                0x0800be54       0x37 build\kernel\src\thread.o
 *fill*         0x0800be8b        0x1 00000000
 .rodata.__FUNCTION__.0
                0x0800be8c       0x11 build\kernel\src\thread.o
 *fill*         0x0800be9d        0x3 00000000
 .rodata.__FUNCTION__.1
                0x0800bea0       0x12 build\kernel\src\thread.o
 *fill*         0x0800beb2        0x2 00000000
 .rodata.__FUNCTION__.10
                0x0800beb4        0xf build\kernel\src\thread.o
 *fill*         0x0800bec3        0x1 00000000
 .rodata.__FUNCTION__.2
                0x0800bec4       0x12 build\kernel\src\thread.o
 *fill*         0x0800bed6        0x2 00000000
 .rodata.__FUNCTION__.4
                0x0800bed8       0x10 build\kernel\src\thread.o
 .rodata.__FUNCTION__.5
                0x0800bee8       0x11 build\kernel\src\thread.o
 *fill*         0x0800bef9        0x3 00000000
 .rodata.__FUNCTION__.6
                0x0800befc       0x11 build\kernel\src\thread.o
 *fill*         0x0800bf0d        0x3 00000000
 .rodata.__FUNCTION__.7
                0x0800bf10       0x12 build\kernel\src\thread.o
 *fill*         0x0800bf22        0x2 00000000
 .rodata.__FUNCTION__.8
                0x0800bf24       0x10 build\kernel\src\thread.o
 .rodata.__FUNCTION__.9
                0x0800bf34        0xd build\kernel\src\thread.o
 *fill*         0x0800bf41        0x3 00000000
 .rodata.rt_sem_init.str1.4
                0x0800bf44       0x5d build\kernel\src\ipc.o
 *fill*         0x0800bfa1        0x3 00000000
 .rodata.rt_sem_detach.str1.4
                0x0800bfa4       0x77 build\kernel\src\ipc.o
 *fill*         0x0800c01b        0x1 00000000
 .rodata.rt_sem_create.str1.4
                0x0800c01c       0x2a build\kernel\src\ipc.o
 *fill*         0x0800c046        0x2 00000000
 .rodata.rt_sem_take.str1.4
                0x0800c048       0x63 build\kernel\src\ipc.o
 *fill*         0x0800c0ab        0x1 00000000
 .rodata.rt_mutex_init.str1.4
                0x0800c0ac       0x11 build\kernel\src\ipc.o
 *fill*         0x0800c0bd        0x3 00000000
 .rodata.rt_mutex_detach.str1.4
                0x0800c0c0       0x75 build\kernel\src\ipc.o
 *fill*         0x0800c135        0x3 00000000
 .rodata.__FUNCTION__.24
                0x0800c138       0x11 build\kernel\src\ipc.o
 *fill*         0x0800c149        0x3 00000000
 .rodata.__FUNCTION__.25
                0x0800c14c        0xe build\kernel\src\ipc.o
 *fill*         0x0800c15a        0x2 00000000
 .rodata.__FUNCTION__.29
                0x0800c15c        0xe build\kernel\src\ipc.o
 *fill*         0x0800c16a        0x2 00000000
 .rodata.__FUNCTION__.31
                0x0800c16c        0xf build\kernel\src\ipc.o
 *fill*         0x0800c17b        0x1 00000000
 .rodata.__FUNCTION__.32
                0x0800c17c       0x12 build\kernel\src\ipc.o
 *fill*         0x0800c18e        0x2 00000000
 .rodata.__FUNCTION__.33
                0x0800c190        0xc build\kernel\src\ipc.o
 .rodata.__FUNCTION__.37
                0x0800c19c        0xc build\kernel\src\ipc.o
 .rodata.rt_device_unregister.str1.4
                0x0800c1a8       0x74 build\kernel\src\device.o
 .rodata.rt_device_init.str1.4
                0x0800c21c       0x36 build\kernel\src\device.o
 *fill*         0x0800c252        0x2 00000000
 .rodata.rt_device_open.str1.4
                0x0800c254       0x14 build\kernel\src\device.o
 .rodata.__FUNCTION__.1
                0x0800c268       0x1a build\kernel\src\device.o
 *fill*         0x0800c282        0x2 00000000
 .rodata.__FUNCTION__.3
                0x0800c284       0x10 build\kernel\src\device.o
 .rodata.__FUNCTION__.4
                0x0800c294        0xf build\kernel\src\device.o
 *fill*         0x0800c2a3        0x1 00000000
 .rodata.__FUNCTION__.5
                0x0800c2a4       0x10 build\kernel\src\device.o
 .rodata.__FUNCTION__.6
                0x0800c2b4        0xf build\kernel\src\device.o
 .rodata.rt_schedule_insert_thread.str1.4
                0x0800c2c3       0x12 build\kernel\src\scheduler.o
 *fill*         0x0800c2c3        0x1 00000000
 .rodata.rt_schedule.str1.4
                0x0800c2c4       0x51 build\kernel\src\scheduler.o
 *fill*         0x0800c315        0x3 00000000
 .rodata.__FUNCTION__.0
                0x0800c318       0x1a build\kernel\src\scheduler.o
 *fill*         0x0800c332        0x2 00000000
 .rodata.__FUNCTION__.1
                0x0800c334       0x1a build\kernel\src\scheduler.o
 *fill*         0x0800c34e        0x2 00000000
 .rodata.rt_thread_idle_init.str1.4
                0x0800c350        0x8 build\kernel\src\idle.o
 .rodata.rt_object_init.str1.4
                0x0800c358       0x27 build\kernel\src\object.o
 *fill*         0x0800c37f        0x1 00000000
 .rodata.rt_object_detach.str1.4
                0x0800c380       0x12 build\kernel\src\object.o
 .rodata.rt_object_allocate.str1.4
                0x0800c392       0x2a build\kernel\src\object.o
 *fill*         0x0800c392        0x2 00000000
 .rodata.rt_object_delete.str1.4
                0x0800c394       0x29 build\kernel\src\object.o
 *fill*         0x0800c3bd        0x3 00000000
 .rodata.__FUNCTION__.0
                0x0800c3c0        0xf build\kernel\src\object.o
 *fill*         0x0800c3cf        0x1 00000000
 .rodata.__FUNCTION__.1
                0x0800c3d0       0x13 build\kernel\src\object.o
 *fill*         0x0800c3e3        0x1 00000000
 .rodata.__FUNCTION__.2
                0x0800c3e4       0x1a build\kernel\src\object.o
 *fill*         0x0800c3fe        0x2 00000000
 .rodata.__FUNCTION__.3
                0x0800c400       0x11 build\kernel\src\object.o
 *fill*         0x0800c411        0x3 00000000
 .rodata.__FUNCTION__.4
                0x0800c414       0x13 build\kernel\src\object.o
 *fill*         0x0800c427        0x1 00000000
 .rodata.__FUNCTION__.5
                0x0800c428       0x11 build\kernel\src\object.o
 *fill*         0x0800c439        0x3 00000000
 .rodata.__FUNCTION__.6
                0x0800c43c        0xf build\kernel\src\object.o
 *fill*         0x0800c44b        0x1 00000000
 .rodata.rt_strerror.str1.4
                0x0800c44c        0x8 build\kernel\src\kservice.o
 .rodata.rt_vsnprintf.str1.4
                0x0800c454        0x7 build\kernel\src\kservice.o
 *fill*         0x0800c45b        0x1 00000000
 .rodata.rt_show_version.str1.4
                0x0800c45c       0x96 build\kernel\src\kservice.o
 *fill*         0x0800c4f2        0x2 00000000
 .rodata.rt_system_heap_init.str1.4
                0x0800c4f4       0x55 build\kernel\src\kservice.o
 *fill*         0x0800c549        0x3 00000000
 .rodata.rt_malloc.str1.4
                0x0800c54c       0x10 build\kernel\src\kservice.o
 .rodata.str1.4
                0x0800c55c       0x4f build\kernel\src\kservice.o
 *fill*         0x0800c5ab        0x1 00000000
 .rodata.__FUNCTION__.0
                0x0800c5ac        0xd build\kernel\src\kservice.o
 *fill*         0x0800c5b9        0x3 00000000
 .rodata.__FUNCTION__.1
                0x0800c5bc       0x14 build\kernel\src\kservice.o
 .rodata.large_digits.4
                0x0800c5d0       0x11 build\kernel\src\kservice.o
 *fill*         0x0800c5e1        0x3 00000000
 .rodata.rt_errno_strs
                0x0800c5e4       0x30 build\kernel\src\kservice.o
 .rodata.small_digits.3
                0x0800c614       0x11 build\kernel\src\kservice.o
 *fill*         0x0800c625        0x3 00000000
 .rodata.rt_hw_hard_fault_exception.str1.4
                0x0800c628      0x2a5 build\kernel\libcpu\arm\cortex-m3\cpuport.o
                                0x2a9 (size before relaxing)
 .rodata.chdir.str1.4
                0x0800c8cd      0x2a5 build\kernel\components\dfs\src\dfs_posix.o
                                  0x4 (size before relaxing)
 *fill*         0x0800c8cd        0x3 00000000
 .rodata.str1.4
                0x0800c8d0        0xb build\kernel\components\dfs\src\dfs_fs.o
 *fill*         0x0800c8db        0x1 00000000
 .rodata.dfs_register.str1.4
                0x0800c8dc       0x41 build\kernel\components\dfs\src\dfs_fs.o
                                 0x46 (size before relaxing)
 *fill*         0x0800c91d        0x3 00000000
 .rodata.dfs_filesystem_lookup.str1.4
                0x0800c920        0x5 build\kernel\components\dfs\src\dfs_fs.o
 *fill*         0x0800c925        0x3 00000000
 .rodata.dfs_mount.str1.4
                0x0800c928       0x3a build\kernel\components\dfs\src\dfs_fs.o
 *fill*         0x0800c962        0x2 00000000
 .rodata.dfs_mkfs.str1.4
                0x0800c964       0x74 build\kernel\components\dfs\src\dfs_fs.o
 .rodata.df.str1.4
                0x0800c9d8       0x4a build\kernel\components\dfs\src\dfs_fs.o
 *fill*         0x0800ca22        0x2 00000000
 .rodata.__FUNCTION__.1
                0x0800ca24       0x16 build\kernel\components\dfs\src\dfs_fs.o
 *fill*         0x0800ca3a        0x2 00000000
 .rodata.list_fd.str1.4
                0x0800ca3c       0x93 build\kernel\components\dfs\src\dfs.o
                                 0x9a (size before relaxing)
 *fill*         0x0800cacf        0x1 00000000
 .rodata.dfs_init.str1.4
                0x0800cad0       0x1b build\kernel\components\dfs\src\dfs.o
 .rodata.dfs_lock.str1.4
                0x0800caeb        0x2 build\kernel\components\dfs\src\dfs.o
 *fill*         0x0800caeb        0x1 00000000
 .rodata.fd_new.str1.4
                0x0800caec       0x39 build\kernel\components\dfs\src\dfs.o
                                 0x45 (size before relaxing)
 *fill*         0x0800cb25        0x3 00000000
 .rodata.fd_put.str1.4
                0x0800cb28        0xb build\kernel\components\dfs\src\dfs.o
 *fill*         0x0800cb33        0x1 00000000
 .rodata.dfs_normalize_path.str1.4
                0x0800cb34       0x1a build\kernel\components\dfs\src\dfs.o
 *fill*         0x0800cb4e        0x2 00000000
 .rodata.__FUNCTION__.0
                0x0800cb50       0x13 build\kernel\components\dfs\src\dfs.o
 *fill*         0x0800cb63        0x1 00000000
 .rodata.__FUNCTION__.1
                0x0800cb64        0x7 build\kernel\components\dfs\src\dfs.o
 *fill*         0x0800cb6b        0x1 00000000
 .rodata.__FUNCTION__.2
                0x0800cb6c        0x9 build\kernel\components\dfs\src\dfs.o
 *fill*         0x0800cb75        0x3 00000000
 .rodata.name   0x0800cb78       0x20 build\kernel\components\dfs\src\dfs.o
                0x0800cb78                __fsym_list_fd_desc
                0x0800cb90                __fsym_list_fd_name
 .rodata.dfs_file_open.str1.4
                0x0800cb98        0x2 build\kernel\components\dfs\src\dfs_file.o
 *fill*         0x0800cb9a        0x2 00000000
 .rodata.copyfile.str1.4
                0x0800cb9c       0x56 build\kernel\components\dfs\src\dfs_file.o
 *fill*         0x0800cbf2        0x2 00000000
 .rodata.dfs_file_stat.str1.4
                0x0800cbf4       0x5e build\kernel\components\dfs\src\dfs_file.o
                                 0x6e (size before relaxing)
 *fill*         0x0800cc52        0x2 00000000
 .rodata.copydir.str1.4
                0x0800cc54       0x3a build\kernel\components\dfs\src\dfs_file.o
                                 0x3e (size before relaxing)
 *fill*         0x0800cc8e        0x2 00000000
 .rodata.ls.str1.4
                0x0800cc90       0x53 build\kernel\components\dfs\src\dfs_file.o
 *fill*         0x0800cce3        0x1 00000000
 .rodata.cat.str1.4
                0x0800cce4       0x10 build\kernel\components\dfs\src\dfs_file.o
                                 0x13 (size before relaxing)
 .rodata.copy.str1.4
                0x0800ccf4       0x44 build\kernel\components\dfs\src\dfs_file.o
 .rodata.rt_completion_init.str1.4
                0x0800cd38       0x16 build\kernel\components\drivers\ipc\completion.o
 *fill*         0x0800cd4e        0x2 00000000
 .rodata.rt_completion_wait.str1.4
                0x0800cd50       0x2f build\kernel\components\drivers\ipc\completion.o
                                 0xbf (size before relaxing)
 *fill*         0x0800cd7f        0x1 00000000
 .rodata.__FUNCTION__.0
                0x0800cd80       0x13 build\kernel\components\drivers\ipc\completion.o
 *fill*         0x0800cd93        0x1 00000000
 .rodata.__FUNCTION__.1
                0x0800cd94       0x13 build\kernel\components\drivers\ipc\completion.o
 *fill*         0x0800cda7        0x1 00000000
 .rodata.__FUNCTION__.2
                0x0800cda8       0x13 build\kernel\components\drivers\ipc\completion.o
 *fill*         0x0800cdbb        0x1 00000000
 .rodata.rt_data_queue_init.str1.4
                0x0800cdbc       0x1d build\kernel\components\drivers\ipc\dataqueue.o
 *fill*         0x0800cdd9        0x3 00000000
 .rodata.rt_data_queue_push.str1.4
                0x0800cddc       0x20 build\kernel\components\drivers\ipc\dataqueue.o
                                 0xaf (size before relaxing)
 .rodata.rt_data_queue_pop.str1.4
                0x0800cdfc       0x24 build\kernel\components\drivers\ipc\dataqueue.o
 .rodata.__FUNCTION__.0
                0x0800ce20       0x12 build\kernel\components\drivers\ipc\dataqueue.o
 *fill*         0x0800ce32        0x2 00000000
 .rodata.__FUNCTION__.1
                0x0800ce34       0x15 build\kernel\components\drivers\ipc\dataqueue.o
 *fill*         0x0800ce49        0x3 00000000
 .rodata.__FUNCTION__.2
                0x0800ce4c       0x14 build\kernel\components\drivers\ipc\dataqueue.o
 .rodata.__FUNCTION__.3
                0x0800ce60       0x13 build\kernel\components\drivers\ipc\dataqueue.o
 *fill*         0x0800ce73        0x1 00000000
 .rodata.__FUNCTION__.4
                0x0800ce74       0x12 build\kernel\components\drivers\ipc\dataqueue.o
 *fill*         0x0800ce86        0x2 00000000
 .rodata.__FUNCTION__.5
                0x0800ce88       0x13 build\kernel\components\drivers\ipc\dataqueue.o
 *fill*         0x0800ce9b        0x1 00000000
 .rodata.__FUNCTION__.6
                0x0800ce9c       0x13 build\kernel\components\drivers\ipc\dataqueue.o
 *fill*         0x0800ceaf        0x1 00000000
 .rodata._pin_control.str1.4
                0x0800ceb0        0xf build\kernel\components\drivers\misc\pin.o
 *fill*         0x0800cebf        0x1 00000000
 .rodata._pin_cmd_print_usage.str1.4
                0x0800cec0      0x1d0 build\kernel\components\drivers\misc\pin.o
 .rodata.rt_pin_attach_irq.str1.4
                0x0800d090       0x17 build\kernel\components\drivers\misc\pin.o
 *fill*         0x0800d0a7        0x1 00000000
 .rodata._pin_cmd.str1.4
                0x0800d0a8       0xb0 build\kernel\components\drivers\misc\pin.o
 .rodata.__FUNCTION__.0
                0x0800d158        0xb build\kernel\components\drivers\misc\pin.o
 *fill*         0x0800d163        0x1 00000000
 .rodata.__FUNCTION__.1
                0x0800d164        0xc build\kernel\components\drivers\misc\pin.o
 .rodata.__FUNCTION__.2
                0x0800d170        0xd build\kernel\components\drivers\misc\pin.o
 *fill*         0x0800d17d        0x3 00000000
 .rodata.__FUNCTION__.3
                0x0800d180        0xc build\kernel\components\drivers\misc\pin.o
 .rodata.__FUNCTION__.4
                0x0800d18c       0x12 build\kernel\components\drivers\misc\pin.o
 *fill*         0x0800d19e        0x2 00000000
 .rodata.__FUNCTION__.6
                0x0800d1a0       0x12 build\kernel\components\drivers\misc\pin.o
 *fill*         0x0800d1b2        0x2 00000000
 .rodata.__FUNCTION__.7
                0x0800d1b4        0xa build\kernel\components\drivers\misc\pin.o
 *fill*         0x0800d1be        0x2 00000000
 .rodata.__FUNCTION__.8
                0x0800d1c0        0xb build\kernel\components\drivers\misc\pin.o
 *fill*         0x0800d1cb        0x1 00000000
 .rodata.__FUNCTION__.9
                0x0800d1cc        0xd build\kernel\components\drivers\misc\pin.o
 *fill*         0x0800d1d9        0x3 00000000
 .rodata.name   0x0800d1dc       0x14 build\kernel\components\drivers\misc\pin.o
                0x0800d1dc                __fsym_pin_desc
                0x0800d1ec                __fsym_pin_name
 .rodata.rt_serial_control.str1.4
                0x0800d1f0        0xf build\kernel\components\drivers\serial\serial.o
 .rodata._serial_fifo_calc_recved_len.str1.4
                0x0800d1f0       0x13 build\kernel\components\drivers\serial\serial.o
 *fill*         0x0800d203        0x1 00000000
 .rodata.rt_serial_open.str1.4
                0x0800d204       0x3a build\kernel\components\drivers\serial\serial.o
 *fill*         0x0800d23e        0x2 00000000
 .rodata.rt_serial_write.str1.4
                0x0800d240        0xe build\kernel\components\drivers\serial\serial.o
 *fill*         0x0800d24e        0x2 00000000
 .rodata.rt_serial_read.str1.4
                0x0800d250       0x7a build\kernel\components\drivers\serial\serial.o
 *fill*         0x0800d2ca        0x2 00000000
 .rodata.rt_hw_serial_register.str1.4
                0x0800d2cc       0x12 build\kernel\components\drivers\serial\serial.o
 *fill*         0x0800d2de        0x2 00000000
 .rodata.rt_hw_serial_isr.str1.4
                0x0800d2e0       0x96 build\kernel\components\drivers\serial\serial.o
                                 0x9a (size before relaxing)
 *fill*         0x0800d376        0x2 00000000
 .rodata.__FUNCTION__.0
                0x0800d378       0x1d build\kernel\components\drivers\serial\serial.o
 *fill*         0x0800d395        0x3 00000000
 .rodata.__FUNCTION__.10
                0x0800d398        0xf build\kernel\components\drivers\serial\serial.o
 *fill*         0x0800d3a7        0x1 00000000
 .rodata.__FUNCTION__.11
                0x0800d3a8        0xf build\kernel\components\drivers\serial\serial.o
 *fill*         0x0800d3b7        0x1 00000000
 .rodata.__FUNCTION__.13
                0x0800d3b8        0xf build\kernel\components\drivers\serial\serial.o
 *fill*         0x0800d3c7        0x1 00000000
 .rodata.__FUNCTION__.14
                0x0800d3c8       0x10 build\kernel\components\drivers\serial\serial.o
 .rodata.__FUNCTION__.15
                0x0800d3d8       0x12 build\kernel\components\drivers\serial\serial.o
 *fill*         0x0800d3ea        0x2 00000000
 .rodata.__FUNCTION__.16
                0x0800d3ec       0x16 build\kernel\components\drivers\serial\serial.o
 *fill*         0x0800d402        0x2 00000000
 .rodata.__FUNCTION__.2
                0x0800d404       0x11 build\kernel\components\drivers\serial\serial.o
 *fill*         0x0800d415        0x3 00000000
 .rodata.__FUNCTION__.3
                0x0800d418        0xf build\kernel\components\drivers\serial\serial.o
 *fill*         0x0800d427        0x1 00000000
 .rodata.__FUNCTION__.4
                0x0800d428        0xf build\kernel\components\drivers\serial\serial.o
 *fill*         0x0800d437        0x1 00000000
 .rodata.__FUNCTION__.5
                0x0800d438       0x10 build\kernel\components\drivers\serial\serial.o
 .rodata.__FUNCTION__.7
                0x0800d448       0x1d build\kernel\components\drivers\serial\serial.o
 *fill*         0x0800d465        0x3 00000000
 .rodata.__FUNCTION__.8
                0x0800d468       0x1d build\kernel\components\drivers\serial\serial.o
 *fill*         0x0800d485        0x3 00000000
 .rodata.__FUNCTION__.9
                0x0800d488        0xf build\kernel\components\drivers\serial\serial.o
 *fill*         0x0800d497        0x1 00000000
 .rodata.finsh_rx_ind.str1.4
                0x0800d498       0x11 build\kernel\components\finsh\shell.o
 *fill*         0x0800d4a9        0x3 00000000
 .rodata.finsh_get_prompt.part.0.str1.4
                0x0800d4ac        0x5 build\kernel\components\finsh\shell.o
                                  0xa (size before relaxing)
 *fill*         0x0800d4b1        0x3 00000000
 .rodata.finsh_system_init.str1.4
                0x0800d4b4       0x25 build\kernel\components\finsh\shell.o
 *fill*         0x0800d4d9        0x3 00000000
 .rodata.finsh_set_device.str1.4
                0x0800d4dc       0x20 build\kernel\components\finsh\shell.o
 .rodata.finsh_thread_entry.str1.4
                0x0800d4fc       0x24 build\kernel\components\finsh\shell.o
                                 0x2b (size before relaxing)
 .rodata.__FUNCTION__.3
                0x0800d520        0xd build\kernel\components\finsh\shell.o
 *fill*         0x0800d52d        0x3 00000000
 .rodata.__FUNCTION__.4
                0x0800d530       0x11 build\kernel\components\finsh\shell.o
 *fill*         0x0800d541        0x3 00000000
 .rodata.__FUNCTION__.5
                0x0800d544        0xe build\kernel\components\finsh\shell.o
 *fill*         0x0800d552        0x2 00000000
 .rodata.__FUNCTION__.6
                0x0800d554       0x16 build\kernel\components\finsh\shell.o
 *fill*         0x0800d56a        0x2 00000000
 .rodata.msh_help.str1.4
                0x0800d56c       0x28 build\kernel\components\finsh\msh.o
                                 0x2a (size before relaxing)
 .rodata.cmd_free.str1.4
                0x0800d594       0x3f build\kernel\components\finsh\msh.o
 .rodata.msh_auto_complete_path.part.0.str1.4
                0x0800d5d3        0x8 build\kernel\components\finsh\msh.o
 *fill*         0x0800d5d3        0x1 00000000
 .rodata.msh_exec.str1.4
                0x0800d5d4       0x3c build\kernel\components\finsh\msh.o
 .rodata.name   0x0800d610       0x6d build\kernel\components\finsh\msh.o
                0x0800d610                __fsym_free_desc
                0x0800d638                __fsym_free_name
                0x0800d640                __fsym_ps_desc
                0x0800d65c                __fsym_ps_name
                0x0800d660                __fsym_help_desc
                0x0800d678                __fsym_help_name
 *fill*         0x0800d67d        0x3 00000000
 .rodata.clear.str1.4
                0x0800d680        0x8 build\kernel\components\finsh\cmd.o
 .rodata.list_thread.str1.4
                0x0800d688       0xfe build\kernel\components\finsh\cmd.o
 *fill*         0x0800d786        0x2 00000000
 .rodata.list_mutex.str1.4
                0x0800d788       0x63 build\kernel\components\finsh\cmd.o
 *fill*         0x0800d7eb        0x1 00000000
 .rodata.list_device.str1.4
                0x0800d7ec       0x67 build\kernel\components\finsh\cmd.o
                                 0x6f (size before relaxing)
 *fill*         0x0800d853        0x1 00000000
 .rodata.list_timer.str1.4
                0x0800d854       0xca build\kernel\components\finsh\cmd.o
                                 0xd2 (size before relaxing)
 *fill*         0x0800d91e        0x2 00000000
 .rodata.list_mempool.str1.4
                0x0800d920       0x91 build\kernel\components\finsh\cmd.o
                                 0x9a (size before relaxing)
 *fill*         0x0800d9b1        0x3 00000000
 .rodata.list_event.str1.4
                0x0800d9b4       0x76 build\kernel\components\finsh\cmd.o
 *fill*         0x0800da2a        0x2 00000000
 .rodata.list_sem.str1.4
                0x0800da2c       0x60 build\kernel\components\finsh\cmd.o
 .rodata.list_msgqueue.str1.4
                0x0800da8c       0x65 build\kernel\components\finsh\cmd.o
 *fill*         0x0800daf1        0x3 00000000
 .rodata.list_mailbox.str1.4
                0x0800daf4       0x76 build\kernel\components\finsh\cmd.o
 *fill*         0x0800db6a        0x2 00000000
 .rodata.cmd_list.str1.4
                0x0800db6c      0x158 build\kernel\components\finsh\cmd.o
 .rodata.str1.4
                0x0800dcc4      0x1a3 build\kernel\components\finsh\cmd.o
 *fill*         0x0800de67        0x1 00000000
 .rodata.device_type_str
                0x0800de68       0x78 build\kernel\components\finsh\cmd.o
 .rodata.name   0x0800dee0      0x1ba build\kernel\components\finsh\cmd.o
                0x0800dee0                __fsym_list_desc
                0x0800def0                __fsym_list_name
                0x0800def8                __fsym_list_device_desc
                0x0800df10                __fsym_list_device_name
                0x0800df1c                __fsym_list_timer_desc
                0x0800df34                __fsym_list_timer_name
                0x0800df40                __fsym_list_mempool_desc
                0x0800df5c                __fsym_list_mempool_name
                0x0800df6c                __fsym_list_msgqueue_desc
                0x0800df8c                __fsym_list_msgqueue_name
                0x0800df9c                __fsym_list_mailbox_desc
                0x0800dfb4                __fsym_list_mailbox_name
                0x0800dfc4                __fsym_list_mutex_desc
                0x0800dfdc                __fsym_list_mutex_name
                0x0800dfe8                __fsym_list_event_desc
                0x0800e000                __fsym_list_event_name
                0x0800e00c                __fsym_list_sem_desc
                0x0800e028                __fsym_list_sem_name
                0x0800e034                __fsym_list_thread_desc
                0x0800e040                __fsym_list_thread_name
                0x0800e04c                __fsym_version_desc
                0x0800e070                __fsym_version_name
                0x0800e078                __fsym_clear_desc
                0x0800e094                __fsym_clear_name
 .rodata.cmd_pwd.str1.4
                0x0800e09a        0x4 build\kernel\components\finsh\msh_file.o
 *fill*         0x0800e09a        0x2 00000000
 .rodata.directory_delete_for_msh.str1.4
                0x0800e09c       0x3c build\kernel\components\finsh\msh_file.o
                                 0x44 (size before relaxing)
 .rodata.cmd_rm.str1.4
                0x0800e0d8       0xab build\kernel\components\finsh\msh_file.o
 *fill*         0x0800e183        0x1 00000000
 .rodata.cmd_mkfs.str1.4
                0x0800e184       0x3c build\kernel\components\finsh\msh_file.o
 .rodata.cmd_mount.str1.4
                0x0800e1c0       0xbe build\kernel\components\finsh\msh_file.o
 *fill*         0x0800e27e        0x2 00000000
 .rodata.cmd_umount.str1.4
                0x0800e280       0x30 build\kernel\components\finsh\msh_file.o
 .rodata.cmd_tail.str1.4
                0x0800e2b0       0xb1 build\kernel\components\finsh\msh_file.o
                                 0xba (size before relaxing)
 *fill*         0x0800e361        0x3 00000000
 .rodata.cmd_cp.str1.4
                0x0800e364       0x2e build\kernel\components\finsh\msh_file.o
 *fill*         0x0800e392        0x2 00000000
 .rodata.cmd_mv.str1.4
                0x0800e394       0x5a build\kernel\components\finsh\msh_file.o
                                 0x6b (size before relaxing)
 *fill*         0x0800e3ee        0x2 00000000
 .rodata.cmd_cat.str1.4
                0x0800e3f0       0x2d build\kernel\components\finsh\msh_file.o
 *fill*         0x0800e41d        0x3 00000000
 .rodata.cmd_cd.str1.4
                0x0800e420       0x17 build\kernel\components\finsh\msh_file.o
 *fill*         0x0800e437        0x1 00000000
 .rodata.cmd_mkdir.str1.4
                0x0800e438       0x59 build\kernel\components\finsh\msh_file.o
 *fill*         0x0800e491        0x3 00000000
 .rodata.cmd_df.str1.4
                0x0800e494       0x13 build\kernel\components\finsh\msh_file.o
                                 0x17 (size before relaxing)
 *fill*         0x0800e4a7        0x1 00000000
 .rodata.cmd_echo.str1.4
                0x0800e4a8       0x39 build\kernel\components\finsh\msh_file.o
 *fill*         0x0800e4e1        0x3 00000000
 .rodata.msh_exec_script.str1.4
                0x0800e4e4       0x12 build\kernel\components\finsh\msh_file.o
 *fill*         0x0800e4f6        0x2 00000000
 .rodata.name   0x0800e4f8      0x1fb build\kernel\components\finsh\msh_file.o
                0x0800e4f8                __fsym_tail_desc
                0x0800e528                __fsym_tail_name
                0x0800e530                __fsym_echo_desc
                0x0800e544                __fsym_echo_name
                0x0800e54c                __fsym_df_desc
                0x0800e558                __fsym_df_name
                0x0800e55c                __fsym_umount_desc
                0x0800e57c                __fsym_umount_name
                0x0800e584                __fsym_mount_desc
                0x0800e5ac                __fsym_mount_name
                0x0800e5b4                __fsym_mkfs_desc
                0x0800e5d4                __fsym_mkfs_name
                0x0800e5dc                __fsym_mkdir_desc
                0x0800e5f4                __fsym_mkdir_name
                0x0800e5fc                __fsym_pwd_desc
                0x0800e630                __fsym_pwd_name
                0x0800e634                __fsym_cd_desc
                0x0800e658                __fsym_cd_name
                0x0800e65c                __fsym_rm_desc
                0x0800e678                __fsym_rm_name
                0x0800e67c                __fsym_cat_desc
                0x0800e690                __fsym_cat_name
                0x0800e694                __fsym_mv_desc
                0x0800e6ac                __fsym_mv_name
                0x0800e6b0                __fsym_cp_desc
                0x0800e6c8                __fsym_cp_name
                0x0800e6cc                __fsym_ls_desc
                0x0800e6f0                __fsym_ls_name
 *fill*         0x0800e6f3        0x1 00000000
 .rodata.HAL_RCC_GetSysClockFreq.str1.4
                0x0800e6f4       0x11 libraries\STM32F1xx_HAL\STM32F1xx_HAL_Driver\Src\stm32f1xx_hal_rcc.o
 *fill*         0x0800e705        0x3 00000000
 .rodata.AHBPrescTable
                0x0800e708       0x10 libraries\STM32F1xx_HAL\CMSIS\Device\ST\STM32F1xx\Source\Templates\system_stm32f1xx.o
                0x0800e708                AHBPrescTable
 .rodata.APBPrescTable
                0x0800e718        0x8 libraries\STM32F1xx_HAL\CMSIS\Device\ST\STM32F1xx\Source\Templates\system_stm32f1xx.o
                0x0800e718                APBPrescTable
 .rodata.rt_hw_pin_init.str1.4
                0x0800e720        0x4 libraries\HAL_Drivers\drv_gpio.o
 .rodata._stm32_pin_ops
                0x0800e724       0x1c libraries\HAL_Drivers\drv_gpio.o
 .rodata.pin_irq_map
                0x0800e740       0x40 libraries\HAL_Drivers\drv_gpio.o
 .rodata.stm32_putc.str1.4
                0x0800e780       0x12 libraries\HAL_Drivers\drv_usart.o
 .rodata.stm32_control.str1.4
                0x0800e780       0x3f libraries\HAL_Drivers\drv_usart.o
                                 0x43 (size before relaxing)
 *fill*         0x0800e7bf        0x1 00000000
 .rodata.stm32_configure.str1.4
                0x0800e7c0        0xf libraries\HAL_Drivers\drv_usart.o
 *fill*         0x0800e7cf        0x1 00000000
 .rodata.stm32_dma_transmit.str1.4
                0x0800e7d0        0xf libraries\HAL_Drivers\drv_usart.o
 *fill*         0x0800e7df        0x1 00000000
 .rodata.HAL_UART_ErrorCallback.str1.4
                0x0800e7e0        0xe libraries\HAL_Drivers\drv_usart.o
 *fill*         0x0800e7ee        0x2 00000000
 .rodata.rt_hw_usart_init.str1.4
                0x0800e7f0       0x11 libraries\HAL_Drivers\drv_usart.o
 *fill*         0x0800e801        0x3 00000000
 .rodata.str1.4
                0x0800e804        0x6 libraries\HAL_Drivers\drv_usart.o
 *fill*         0x0800e80a        0x2 00000000
 .rodata.__FUNCTION__.0
                0x0800e80c       0x10 libraries\HAL_Drivers\drv_usart.o
 .rodata.__FUNCTION__.1
                0x0800e81c       0x11 libraries\HAL_Drivers\drv_usart.o
 *fill*         0x0800e82d        0x3 00000000
 .rodata.__FUNCTION__.11
                0x0800e830       0x18 libraries\HAL_Drivers\drv_usart.o
 .rodata.__FUNCTION__.12
                0x0800e848       0x17 libraries\HAL_Drivers\drv_usart.o
 *fill*         0x0800e85f        0x1 00000000
 .rodata.__FUNCTION__.2
                0x0800e860        0xe libraries\HAL_Drivers\drv_usart.o
 *fill*         0x0800e86e        0x2 00000000
 .rodata.__FUNCTION__.3
                0x0800e870        0xb libraries\HAL_Drivers\drv_usart.o
 *fill*         0x0800e87b        0x1 00000000
 .rodata.__FUNCTION__.4
                0x0800e87c        0xb libraries\HAL_Drivers\drv_usart.o
 *fill*         0x0800e887        0x1 00000000
 .rodata.__FUNCTION__.5
                0x0800e888       0x13 libraries\HAL_Drivers\drv_usart.o
 *fill*         0x0800e89b        0x1 00000000
 .rodata.__FUNCTION__.6
                0x0800e89c       0x11 libraries\HAL_Drivers\drv_usart.o
 *fill*         0x0800e8ad        0x3 00000000
 .rodata.__FUNCTION__.8
                0x0800e8b0       0x18 libraries\HAL_Drivers\drv_usart.o
 .rodata.__FUNCTION__.9
                0x0800e8c8       0x1c libraries\HAL_Drivers\drv_usart.o
 .rodata.stm32_uart_ops
                0x0800e8e4       0x14 libraries\HAL_Drivers\drv_usart.o
 .rodata._Error_Handler.str1.4
                0x0800e8f8       0x30 libraries\HAL_Drivers\drv_common.o
                                 0x32 (size before relaxing)
 .rodata.rt_hw_board_init.str1.4
                0x0800e928        0x5 libraries\HAL_Drivers\drv_common.o
 *fill*         0x0800e92d        0x3 00000000
 .rodata.name   0x0800e930       0x17 libraries\HAL_Drivers\drv_common.o
                0x0800e930                __fsym_reboot_desc
                0x0800e940                __fsym_reboot_name
 *fill*         0x0800e947        0x1 00000000
 .rodata._ctype_
                0x0800e948      0x101 g:/rt-threadstudio/platform/env_released/env/tools/gnu_gcc/arm_gcc/mingw/bin/../lib/gcc/arm-none-eabi/10.3.1/../../../../arm-none-eabi/lib/thumb/v7-m/nofp\libc.a(lib_a-ctype_.o)
                0x0800e948                _ctype_
 *fill*         0x0800ea49        0x3 00000000
 .rodata._global_impure_ptr
                0x0800ea4c        0x4 g:/rt-threadstudio/platform/env_released/env/tools/gnu_gcc/arm_gcc/mingw/bin/../lib/gcc/arm-none-eabi/10.3.1/../../../../arm-none-eabi/lib/thumb/v7-m/nofp\libc.a(lib_a-impure.o)
                0x0800ea4c                _global_impure_ptr
 *(.glue_7)
 .glue_7        0x0800ea50        0x0 linker stubs
 *(.glue_7t)
 .glue_7t       0x0800ea50        0x0 linker stubs
 *(.gnu.linkonce.t*)
                0x0800ea50                . = ALIGN (0x4)
                0x0800ea50                __fsymtab_start = .
 *(FSymTab)
 FSymTab        0x0800ea50        0xc build\kernel\components\dfs\src\dfs.o
                0x0800ea50                __fsym_list_fd
 FSymTab        0x0800ea5c        0xc build\kernel\components\drivers\misc\pin.o
                0x0800ea5c                __fsym_pin
 FSymTab        0x0800ea68       0x24 build\kernel\components\finsh\msh.o
                0x0800ea68                __fsym_free
                0x0800ea74                __fsym_ps
                0x0800ea80                __fsym_help
 FSymTab        0x0800ea8c       0x90 build\kernel\components\finsh\cmd.o
                0x0800ea8c                __fsym_list
                0x0800ea98                __fsym_list_device
                0x0800eaa4                __fsym_list_timer
                0x0800eab0                __fsym_list_mempool
                0x0800eabc                __fsym_list_msgqueue
                0x0800eac8                __fsym_list_mailbox
                0x0800ead4                __fsym_list_mutex
                0x0800eae0                __fsym_list_event
                0x0800eaec                __fsym_list_sem
                0x0800eaf8                __fsym_list_thread
                0x0800eb04                __fsym_version
                0x0800eb10                __fsym_clear
 FSymTab        0x0800eb1c       0xa8 build\kernel\components\finsh\msh_file.o
                0x0800eb1c                __fsym_tail
                0x0800eb28                __fsym_echo
                0x0800eb34                __fsym_df
                0x0800eb40                __fsym_umount
                0x0800eb4c                __fsym_mount
                0x0800eb58                __fsym_mkfs
                0x0800eb64                __fsym_mkdir
                0x0800eb70                __fsym_pwd
                0x0800eb7c                __fsym_cd
                0x0800eb88                __fsym_rm
                0x0800eb94                __fsym_cat
                0x0800eba0                __fsym_mv
                0x0800ebac                __fsym_cp
                0x0800ebb8                __fsym_ls
 FSymTab        0x0800ebc4        0xc libraries\HAL_Drivers\drv_common.o
                0x0800ebc4                __fsym_reboot
                0x0800ebd0                __fsymtab_end = .
                0x0800ebd0                . = ALIGN (0x4)
                0x0800ebd0                __vsymtab_start = .
 *(VSymTab)
                0x0800ebd0                __vsymtab_end = .
                0x0800ebd0                . = ALIGN (0x4)
                0x0800ebd0                __rt_init_start = .
 *(SORT_BY_NAME(.rti_fn*))
 .rti_fn.0      0x0800ebd0        0x4 build\kernel\src\components.o
                0x0800ebd0                __rt_init_rti_start
 .rti_fn.0.end  0x0800ebd4        0x4 build\kernel\src\components.o
                0x0800ebd4                __rt_init_rti_board_start
 .rti_fn.1.end  0x0800ebd8        0x4 build\kernel\src\components.o
                0x0800ebd8                __rt_init_rti_board_end
 .rti_fn.2      0x0800ebdc        0x4 build\kernel\components\dfs\src\dfs.o
                0x0800ebdc                __rt_init_dfs_init
 .rti_fn.4      0x0800ebe0        0x4 build\board\ports\user_key.o
                0x0800ebe0                __rt_init_rt_hw_user_key_init
 .rti_fn.6      0x0800ebe4        0x4 build\kernel\components\finsh\shell.o
                0x0800ebe4                __rt_init_finsh_system_init
 .rti_fn.6.end  0x0800ebe8        0x4 build\kernel\src\components.o
                0x0800ebe8                __rt_init_rti_end
                0x0800ebec                __rt_init_end = .
                0x0800ebec                . = ALIGN (0x4)
                [!provide]                PROVIDE (__ctors_start__ = .)
 *(SORT_BY_NAME(.init_array.*))
 .init_array.00000
                0x0800ebec        0x4 g:/rt-threadstudio/platform/env_released/env/tools/gnu_gcc/arm_gcc/mingw/bin/../lib/gcc/arm-none-eabi/10.3.1/../../../../arm-none-eabi/lib/thumb/v7-m/nofp\libc.a(lib_a-__call_atexit.o)
 *(.init_array)
 .init_array    0x0800ebf0        0x4 g:/rt-threadstudio/platform/env_released/env/tools/gnu_gcc/arm_gcc/mingw/bin/../lib/gcc/arm-none-eabi/10.3.1/thumb/v7-m/nofp/crtbegin.o
                [!provide]                PROVIDE (__ctors_end__ = .)
                0x0800ebf4                . = ALIGN (0x4)
                0x0800ebf4                _etext = .
                0x0800ebf4                __exidx_start = .

.vfp11_veneer   0x0800ebf4        0x0
 .vfp11_veneer  0x0800ebf4        0x0 linker stubs

.v4_bx          0x0800ebf4        0x0
 .v4_bx         0x0800ebf4        0x0 linker stubs

.init           0x0800ebf4        0x4
 .init          0x0800ebf4        0x4 g:/rt-threadstudio/platform/env_released/env/tools/gnu_gcc/arm_gcc/mingw/bin/../lib/gcc/arm-none-eabi/10.3.1/thumb/v7-m/nofp/crti.o
                0x0800ebf4                _init

.fini           0x0800ebf8        0x4
 .fini          0x0800ebf8        0x4 g:/rt-threadstudio/platform/env_released/env/tools/gnu_gcc/arm_gcc/mingw/bin/../lib/gcc/arm-none-eabi/10.3.1/thumb/v7-m/nofp/crti.o
                0x0800ebf8                _fini

.iplt           0x0800ebfc        0x0
 .iplt          0x0800ebfc        0x0 g:/rt-threadstudio/platform/env_released/env/tools/gnu_gcc/arm_gcc/mingw/bin/../lib/gcc/arm-none-eabi/10.3.1/thumb/v7-m/nofp/crtbegin.o

.eh_frame       0x0800ebfc        0x0
 .eh_frame      0x0800ebfc        0x0 g:/rt-threadstudio/platform/env_released/env/tools/gnu_gcc/arm_gcc/mingw/bin/../lib/gcc/arm-none-eabi/10.3.1/thumb/v7-m/nofp/crtbegin.o

.rel.dyn        0x0800ebfc        0x0
 .rel.iplt      0x0800ebfc        0x0 g:/rt-threadstudio/platform/env_released/env/tools/gnu_gcc/arm_gcc/mingw/bin/../lib/gcc/arm-none-eabi/10.3.1/thumb/v7-m/nofp/crtbegin.o

.ARM.exidx      0x0800ebfc        0x0
 *(.ARM.exidx* .gnu.linkonce.armexidx.*)
                0x0800ebfc                _sidata = .
                0x0800ebfc                __exidx_end = .

.data           0x20000000      0x6bc load address 0x0800ebfc
                0x20000000                . = ALIGN (0x4)
                0x20000000                _sdata = .
 *(.data)
 *(.data.*)
 .data._soft_timer_status
                0x20000000        0x1 build\kernel\src\timer.o
 *fill*         0x20000001        0x3 
 .data._rt_thread_defunct
                0x20000004        0x8 build\kernel\src\idle.o
 .data._object_container
                0x2000000c       0xa0 build\kernel\src\object.o
 .data.working_directory
                0x200000ac      0x100 build\kernel\components\dfs\src\dfs.o
                0x200000ac                working_directory
 .data.SystemCoreClock
                0x200001ac        0x4 libraries\STM32F1xx_HAL\CMSIS\Device\ST\STM32F1xx\Source\Templates\system_stm32f1xx.o
                0x200001ac                SystemCoreClock
 .data.uwTickPrio
                0x200001b0        0x4 libraries\STM32F1xx_HAL\STM32F1xx_HAL_Driver\Src\stm32f1xx_hal.o
                0x200001b0                uwTickPrio
 .data.pin_irq_hdr_tab
                0x200001b4       0xc0 libraries\HAL_Drivers\drv_gpio.o
 .data.uart_config
                0x20000274       0x14 libraries\HAL_Drivers\drv_usart.o
 .data._systick_ms
                0x20000288        0x4 libraries\HAL_Drivers\drv_common.o
 .data._impure_ptr
                0x2000028c        0x4 g:/rt-threadstudio/platform/env_released/env/tools/gnu_gcc/arm_gcc/mingw/bin/../lib/gcc/arm-none-eabi/10.3.1/../../../../arm-none-eabi/lib/thumb/v7-m/nofp\libc.a(lib_a-impure.o)
                0x2000028c                _impure_ptr
 .data.impure_data
                0x20000290      0x428 g:/rt-threadstudio/platform/env_released/env/tools/gnu_gcc/arm_gcc/mingw/bin/../lib/gcc/arm-none-eabi/10.3.1/../../../../arm-none-eabi/lib/thumb/v7-m/nofp\libc.a(lib_a-impure.o)
 .data.__atexit_recursive_mutex
                0x200006b8        0x4 g:/rt-threadstudio/platform/env_released/env/tools/gnu_gcc/arm_gcc/mingw/bin/../lib/gcc/arm-none-eabi/10.3.1/../../../../arm-none-eabi/lib/thumb/v7-m/nofp\libc.a(lib_a-__call_atexit.o)
                0x200006b8                __atexit_recursive_mutex
 *(.gnu.linkonce.d*)
                [!provide]                PROVIDE (__dtors_start__ = .)
 *(SORT_BY_NAME(.dtors.*))
 *(.dtors)
                [!provide]                PROVIDE (__dtors_end__ = .)
                0x200006bc                . = ALIGN (0x4)
                0x200006bc                _edata = .

.igot.plt       0x200006bc        0x0 load address 0x0800f2b8
 .igot.plt      0x200006bc        0x0 g:/rt-threadstudio/platform/env_released/env/tools/gnu_gcc/arm_gcc/mingw/bin/../lib/gcc/arm-none-eabi/10.3.1/thumb/v7-m/nofp/crtbegin.o

.stack          0x200006bc      0x400 load address 0x0800f2b8
                0x200006bc                . = ALIGN (0x4)
                0x200006bc                _sstack = .
                0x20000abc                . = (. + _system_stack_size)
 *fill*         0x200006bc      0x400 
                0x20000abc                . = ALIGN (0x4)
                0x20000abc                _estack = .
                0x20000abc                __bss_start = .

.bss            0x20000abc      0xa1c load address 0x0800f6b8
                0x20000abc                . = ALIGN (0x4)
                0x20000abc                _sbss = .
 *(.bss)
 .bss           0x20000abc       0x1c g:/rt-threadstudio/platform/env_released/env/tools/gnu_gcc/arm_gcc/mingw/bin/../lib/gcc/arm-none-eabi/10.3.1/thumb/v7-m/nofp/crtbegin.o
 *(.bss.*)
 .bss._soft_timer_list
                0x20000ad8        0x8 build\kernel\src\timer.o
 .bss._timer_list
                0x20000ae0        0x8 build\kernel\src\timer.o
 .bss._timer_thread
                0x20000ae8       0x80 build\kernel\src\timer.o
 .bss._timer_thread_stack
                0x20000b68      0x200 build\kernel\src\timer.o
 .bss.random_nr.2
                0x20000d68        0x4 build\kernel\src\timer.o
 .bss.rt_timer_enter_hook
                0x20000d6c        0x4 build\kernel\src\timer.o
 .bss.rt_timer_exit_hook
                0x20000d70        0x4 build\kernel\src\timer.o
 .bss.rt_interrupt_enter_hook
                0x20000d74        0x4 build\kernel\src\irq.o
 .bss.rt_interrupt_leave_hook
                0x20000d78        0x4 build\kernel\src\irq.o
 .bss.rt_interrupt_nest
                0x20000d7c        0x1 build\kernel\src\irq.o
                0x20000d7c                rt_interrupt_nest
 *fill*         0x20000d7d        0x3 
 .bss.rt_thread_inited_hook
                0x20000d80        0x4 build\kernel\src\thread.o
 .bss.rt_thread_resume_hook
                0x20000d84        0x4 build\kernel\src\thread.o
 .bss.rt_thread_suspend_hook
                0x20000d88        0x4 build\kernel\src\thread.o
 .bss.rt_tick   0x20000d8c        0x4 build\kernel\src\clock.o
 .bss.rt_tick_hook
                0x20000d90        0x4 build\kernel\src\clock.o
 .bss.rt_current_priority
                0x20000d94        0x1 build\kernel\src\scheduler.o
                0x20000d94                rt_current_priority
 *fill*         0x20000d95        0x3 
 .bss.rt_current_thread
                0x20000d98        0x4 build\kernel\src\scheduler.o
                0x20000d98                rt_current_thread
 .bss.rt_scheduler_hook
                0x20000d9c        0x4 build\kernel\src\scheduler.o
 .bss.rt_scheduler_lock_nest
                0x20000da0        0x2 build\kernel\src\scheduler.o
 *fill*         0x20000da2        0x2 
 .bss.rt_scheduler_switch_hook
                0x20000da4        0x4 build\kernel\src\scheduler.o
 .bss.rt_thread_priority_table
                0x20000da8      0x100 build\kernel\src\scheduler.o
                0x20000da8                rt_thread_priority_table
 .bss.rt_thread_ready_priority_group
                0x20000ea8        0x4 build\kernel\src\scheduler.o
                0x20000ea8                rt_thread_ready_priority_group
 .bss.idle      0x20000eac       0x80 build\kernel\src\idle.o
 .bss.idle_hook_list
                0x20000f2c       0x10 build\kernel\src\idle.o
 .bss.rt_thread_stack
                0x20000f3c      0x100 build\kernel\src\idle.o
 .bss.rt_object_attach_hook
                0x2000103c        0x4 build\kernel\src\object.o
 .bss.rt_object_detach_hook
                0x20001040        0x4 build\kernel\src\object.o
 .bss.rt_object_put_hook
                0x20001044        0x4 build\kernel\src\object.o
                0x20001044                rt_object_put_hook
 .bss.rt_object_take_hook
                0x20001048        0x4 build\kernel\src\object.o
                0x20001048                rt_object_take_hook
 .bss.rt_object_trytake_hook
                0x2000104c        0x4 build\kernel\src\object.o
                0x2000104c                rt_object_trytake_hook
 .bss.__rt_errno
                0x20001050        0x4 build\kernel\src\kservice.o
 .bss._console_device
                0x20001054        0x4 build\kernel\src\kservice.o
 .bss._lock     0x20001058       0x24 build\kernel\src\kservice.o
 .bss.rt_assert_hook
                0x2000107c        0x4 build\kernel\src\kservice.o
                0x2000107c                rt_assert_hook
 .bss.rt_free_hook
                0x20001080        0x4 build\kernel\src\kservice.o
 .bss.rt_log_buf.2
                0x20001084       0x80 build\kernel\src\kservice.o
 .bss.rt_malloc_hook
                0x20001104        0x4 build\kernel\src\kservice.o
 .bss.system_heap
                0x20001108        0x4 build\kernel\src\kservice.o
 .bss.rt_exception_hook
                0x2000110c        0x4 build\kernel\libcpu\arm\cortex-m3\cpuport.o
 .bss.rt_interrupt_from_thread
                0x20001110        0x4 build\kernel\libcpu\arm\cortex-m3\cpuport.o
                0x20001110                rt_interrupt_from_thread
 .bss.rt_interrupt_to_thread
                0x20001114        0x4 build\kernel\libcpu\arm\cortex-m3\cpuport.o
                0x20001114                rt_interrupt_to_thread
 .bss.rt_thread_switch_interrupt_flag
                0x20001118        0x4 build\kernel\libcpu\arm\cortex-m3\cpuport.o
                0x20001118                rt_thread_switch_interrupt_flag
 .bss._fdtab    0x2000111c        0x8 build\kernel\components\dfs\src\dfs.o
 .bss.filesystem_operation_table
                0x20001124       0x10 build\kernel\components\dfs\src\dfs.o
                0x20001124                filesystem_operation_table
 .bss.filesystem_table
                0x20001134       0x40 build\kernel\components\dfs\src\dfs.o
                0x20001134                filesystem_table
 .bss.fslock    0x20001174       0x24 build\kernel\components\dfs\src\dfs.o
 .bss.init_ok.3
                0x20001198        0x4 build\kernel\components\dfs\src\dfs.o
 .bss.dirent    0x2000119c      0x104 build\kernel\components\dfs\src\dfs_file.o
 .bss.fd        0x200012a0       0x24 build\kernel\components\dfs\src\dfs_file.o
 .bss._hw_pin   0x200012c4       0x44 build\kernel\components\drivers\misc\pin.o
 .bss.already_output.1
                0x20001308        0x4 build\kernel\components\drivers\serial\serial.o
 .bss._syscall_table_begin
                0x2000130c        0x4 build\kernel\components\finsh\shell.o
                0x2000130c                _syscall_table_begin
 .bss._syscall_table_end
                0x20001310        0x4 build\kernel\components\finsh\shell.o
                0x20001310                _syscall_table_end
 .bss.finsh_prompt.8
                0x20001314       0x81 build\kernel\components\finsh\shell.o
 *fill*         0x20001395        0x3 
 .bss.finsh_prompt_custom
                0x20001398        0x4 build\kernel\components\finsh\shell.o
 .bss.shell     0x2000139c        0x4 build\kernel\components\finsh\shell.o
                0x2000139c                shell
 .bss.uwTick    0x200013a0        0x4 libraries\STM32F1xx_HAL\STM32F1xx_HAL_Driver\Src\stm32f1xx_hal.o
                0x200013a0                uwTick
 .bss.pin_irq_enable_mask
                0x200013a4        0x4 libraries\HAL_Drivers\drv_gpio.o
 .bss.uart_obj  0x200013a8      0x12c libraries\HAL_Drivers\drv_usart.o
 .bss.__lock___atexit_recursive_mutex
                0x200014d4        0x1 g:/rt-threadstudio/platform/env_released/env/tools/gnu_gcc/arm_gcc/mingw/bin/../lib/gcc/arm-none-eabi/10.3.1/../../../../arm-none-eabi/lib/thumb/v7-m/nofp\libc.a(lib_a-lock.o)
                0x200014d4                __lock___atexit_recursive_mutex
 *(COMMON)
                0x200014d8                . = ALIGN (0x4)
 *fill*         0x200014d5        0x3 
                0x200014d8                _ebss = .
 *(.bss.init)
                0x200014d8                __bss_end = .
                0x200014d8                _end = .

.stab
 *(.stab)

.stabstr
 *(.stabstr)

.stab.excl
 *(.stab.excl)

.stab.exclstr
 *(.stab.exclstr)

.stab.index
 *(.stab.index)

.stab.indexstr
 *(.stab.indexstr)

.comment        0x00000000       0x49
 *(.comment)
 .comment       0x00000000       0x49 build\applications\main.o
                                 0x4a (size before relaxing)
 .comment       0x00000049       0x4a build\board\ports\user_key.o
 .comment       0x00000049       0x4a build\board\CubeMX_Config\Src\stm32f1xx_hal_msp.o
 .comment       0x00000049       0x4a build\board\board.o
 .comment       0x00000049       0x4a build\kernel\src\mem.o
 .comment       0x00000049       0x4a build\kernel\src\timer.o
 .comment       0x00000049       0x4a build\kernel\src\irq.o
 .comment       0x00000049       0x4a build\kernel\src\components.o
 .comment       0x00000049       0x4a build\kernel\src\thread.o
 .comment       0x00000049       0x4a build\kernel\src\clock.o
 .comment       0x00000049       0x4a build\kernel\src\ipc.o
 .comment       0x00000049       0x4a build\kernel\src\device.o
 .comment       0x00000049       0x4a build\kernel\src\scheduler.o
 .comment       0x00000049       0x4a build\kernel\src\idle.o
 .comment       0x00000049       0x4a build\kernel\src\object.o
 .comment       0x00000049       0x4a build\kernel\src\kservice.o
 .comment       0x00000049       0x4a build\kernel\libcpu\arm\cortex-m3\cpuport.o
 .comment       0x00000049       0x4a build\kernel\components\dfs\src\dfs_posix.o
 .comment       0x00000049       0x4a build\kernel\components\dfs\src\dfs_fs.o
 .comment       0x00000049       0x4a build\kernel\components\dfs\src\dfs.o
 .comment       0x00000049       0x4a build\kernel\components\dfs\src\dfs_file.o
 .comment       0x00000049       0x4a build\kernel\components\drivers\ipc\completion.o
 .comment       0x00000049       0x4a build\kernel\components\drivers\ipc\dataqueue.o
 .comment       0x00000049       0x4a build\kernel\components\drivers\misc\pin.o
 .comment       0x00000049       0x4a build\kernel\components\drivers\serial\serial.o
 .comment       0x00000049       0x4a build\kernel\components\finsh\shell.o
 .comment       0x00000049       0x4a build\kernel\components\finsh\msh.o
 .comment       0x00000049       0x4a build\kernel\components\finsh\msh_parse.o
 .comment       0x00000049       0x4a build\kernel\components\finsh\cmd.o
 .comment       0x00000049       0x4a build\kernel\components\finsh\msh_file.o
 .comment       0x00000049       0x4a build\kernel\components\libc\compilers\common\cstring.o
 .comment       0x00000049       0x4a build\kernel\components\libc\compilers\newlib\syscalls.o
 .comment       0x00000049       0x4a libraries\STM32F1xx_HAL\STM32F1xx_HAL_Driver\Src\stm32f1xx_hal_rcc_ex.o
 .comment       0x00000049       0x4a libraries\STM32F1xx_HAL\STM32F1xx_HAL_Driver\Src\stm32f1xx_hal_cortex.o
 .comment       0x00000049       0x4a libraries\STM32F1xx_HAL\STM32F1xx_HAL_Driver\Src\stm32f1xx_hal_rcc.o
 .comment       0x00000049       0x4a libraries\STM32F1xx_HAL\STM32F1xx_HAL_Driver\Src\stm32f1xx_hal_dma.o
 .comment       0x00000049       0x4a libraries\STM32F1xx_HAL\CMSIS\Device\ST\STM32F1xx\Source\Templates\system_stm32f1xx.o
 .comment       0x00000049       0x4a libraries\STM32F1xx_HAL\STM32F1xx_HAL_Driver\Src\stm32f1xx_hal_uart.o
 .comment       0x00000049       0x4a libraries\STM32F1xx_HAL\STM32F1xx_HAL_Driver\Src\stm32f1xx_hal.o
 .comment       0x00000049       0x4a libraries\STM32F1xx_HAL\STM32F1xx_HAL_Driver\Src\stm32f1xx_hal_gpio.o
 .comment       0x00000049       0x4a libraries\HAL_Drivers\drv_gpio.o
 .comment       0x00000049       0x4a libraries\HAL_Drivers\drv_usart.o
 .comment       0x00000049       0x4a libraries\HAL_Drivers\drv_common.o

.ARM.attributes
                0x00000000       0x29
 .ARM.attributes
                0x00000000       0x1d g:/rt-threadstudio/platform/env_released/env/tools/gnu_gcc/arm_gcc/mingw/bin/../lib/gcc/arm-none-eabi/10.3.1/thumb/v7-m/nofp/crti.o
 .ARM.attributes
                0x0000001d       0x2d g:/rt-threadstudio/platform/env_released/env/tools/gnu_gcc/arm_gcc/mingw/bin/../lib/gcc/arm-none-eabi/10.3.1/thumb/v7-m/nofp/crtbegin.o
 .ARM.attributes
                0x0000004a       0x2d build\applications\main.o
 .ARM.attributes
                0x00000077       0x2d build\board\ports\user_key.o
 .ARM.attributes
                0x000000a4       0x21 libraries\STM32F1xx_HAL\CMSIS\Device\ST\STM32F1xx\Source\Templates\gcc\startup_stm32f103xb.o
 .ARM.attributes
                0x000000c5       0x2d build\board\CubeMX_Config\Src\stm32f1xx_hal_msp.o
 .ARM.attributes
                0x000000f2       0x2d build\board\board.o
 .ARM.attributes
                0x0000011f       0x2d build\kernel\src\mem.o
 .ARM.attributes
                0x0000014c       0x2d build\kernel\src\timer.o
 .ARM.attributes
                0x00000179       0x2d build\kernel\src\irq.o
 .ARM.attributes
                0x000001a6       0x2d build\kernel\src\components.o
 .ARM.attributes
                0x000001d3       0x2d build\kernel\src\thread.o
 .ARM.attributes
                0x00000200       0x2d build\kernel\src\clock.o
 .ARM.attributes
                0x0000022d       0x2d build\kernel\src\ipc.o
 .ARM.attributes
                0x0000025a       0x2d build\kernel\src\device.o
 .ARM.attributes
                0x00000287       0x2d build\kernel\src\scheduler.o
 .ARM.attributes
                0x000002b4       0x2d build\kernel\src\idle.o
 .ARM.attributes
                0x000002e1       0x2d build\kernel\src\object.o
 .ARM.attributes
                0x0000030e       0x2d build\kernel\src\kservice.o
 .ARM.attributes
                0x0000033b       0x21 build\kernel\libcpu\arm\cortex-m3\context_gcc.o
 .ARM.attributes
                0x0000035c       0x2d build\kernel\libcpu\arm\cortex-m3\cpuport.o
 .ARM.attributes
                0x00000389       0x2d build\kernel\components\dfs\src\dfs_posix.o
 .ARM.attributes
                0x000003b6       0x2d build\kernel\components\dfs\src\dfs_fs.o
 .ARM.attributes
                0x000003e3       0x2d build\kernel\components\dfs\src\dfs.o
 .ARM.attributes
                0x00000410       0x2d build\kernel\components\dfs\src\dfs_file.o
 .ARM.attributes
                0x0000043d       0x2d build\kernel\components\drivers\ipc\completion.o
 .ARM.attributes
                0x0000046a       0x2d build\kernel\components\drivers\ipc\dataqueue.o
 .ARM.attributes
                0x00000497       0x2d build\kernel\components\drivers\misc\pin.o
 .ARM.attributes
                0x000004c4       0x2d build\kernel\components\drivers\serial\serial.o
 .ARM.attributes
                0x000004f1       0x2d build\kernel\components\finsh\shell.o
 .ARM.attributes
                0x0000051e       0x2d build\kernel\components\finsh\msh.o
 .ARM.attributes
                0x0000054b       0x2d build\kernel\components\finsh\msh_parse.o
 .ARM.attributes
                0x00000578       0x2d build\kernel\components\finsh\cmd.o
 .ARM.attributes
                0x000005a5       0x2d build\kernel\components\finsh\msh_file.o
 .ARM.attributes
                0x000005d2       0x2d build\kernel\components\libc\compilers\common\cstring.o
 .ARM.attributes
                0x000005ff       0x2d build\kernel\components\libc\compilers\newlib\syscalls.o
 .ARM.attributes
                0x0000062c       0x2d libraries\STM32F1xx_HAL\STM32F1xx_HAL_Driver\Src\stm32f1xx_hal_rcc_ex.o
 .ARM.attributes
                0x00000659       0x2d libraries\STM32F1xx_HAL\STM32F1xx_HAL_Driver\Src\stm32f1xx_hal_cortex.o
 .ARM.attributes
                0x00000686       0x2d libraries\STM32F1xx_HAL\STM32F1xx_HAL_Driver\Src\stm32f1xx_hal_rcc.o
 .ARM.attributes
                0x000006b3       0x2d libraries\STM32F1xx_HAL\STM32F1xx_HAL_Driver\Src\stm32f1xx_hal_dma.o
 .ARM.attributes
                0x000006e0       0x2d libraries\STM32F1xx_HAL\CMSIS\Device\ST\STM32F1xx\Source\Templates\system_stm32f1xx.o
 .ARM.attributes
                0x0000070d       0x2d libraries\STM32F1xx_HAL\STM32F1xx_HAL_Driver\Src\stm32f1xx_hal_uart.o
 .ARM.attributes
                0x0000073a       0x2d libraries\STM32F1xx_HAL\STM32F1xx_HAL_Driver\Src\stm32f1xx_hal.o
 .ARM.attributes
                0x00000767       0x2d libraries\STM32F1xx_HAL\STM32F1xx_HAL_Driver\Src\stm32f1xx_hal_gpio.o
 .ARM.attributes
                0x00000794       0x2d libraries\HAL_Drivers\drv_gpio.o
 .ARM.attributes
                0x000007c1       0x2d libraries\HAL_Drivers\drv_usart.o
 .ARM.attributes
                0x000007ee       0x2d libraries\HAL_Drivers\drv_common.o
 .ARM.attributes
                0x0000081b       0x2d g:/rt-threadstudio/platform/env_released/env/tools/gnu_gcc/arm_gcc/mingw/bin/../lib/gcc/arm-none-eabi/10.3.1/../../../../arm-none-eabi/lib/thumb/v7-m/nofp\libc.a(lib_a-atoi.o)
 .ARM.attributes
                0x00000848       0x2d g:/rt-threadstudio/platform/env_released/env/tools/gnu_gcc/arm_gcc/mingw/bin/../lib/gcc/arm-none-eabi/10.3.1/../../../../arm-none-eabi/lib/thumb/v7-m/nofp\libc.a(lib_a-ctype_.o)
 .ARM.attributes
                0x00000875       0x2d g:/rt-threadstudio/platform/env_released/env/tools/gnu_gcc/arm_gcc/mingw/bin/../lib/gcc/arm-none-eabi/10.3.1/../../../../arm-none-eabi/lib/thumb/v7-m/nofp\libc.a(lib_a-impure.o)
 .ARM.attributes
                0x000008a2       0x2d g:/rt-threadstudio/platform/env_released/env/tools/gnu_gcc/arm_gcc/mingw/bin/../lib/gcc/arm-none-eabi/10.3.1/../../../../arm-none-eabi/lib/thumb/v7-m/nofp\libc.a(lib_a-memcmp.o)
 .ARM.attributes
                0x000008cf       0x1b g:/rt-threadstudio/platform/env_released/env/tools/gnu_gcc/arm_gcc/mingw/bin/../lib/gcc/arm-none-eabi/10.3.1/../../../../arm-none-eabi/lib/thumb/v7-m/nofp\libc.a(lib_a-memcpy.o)
 .ARM.attributes
                0x000008ea       0x2d g:/rt-threadstudio/platform/env_released/env/tools/gnu_gcc/arm_gcc/mingw/bin/../lib/gcc/arm-none-eabi/10.3.1/../../../../arm-none-eabi/lib/thumb/v7-m/nofp\libc.a(lib_a-memset.o)
 .ARM.attributes
                0x00000917       0x2d g:/rt-threadstudio/platform/env_released/env/tools/gnu_gcc/arm_gcc/mingw/bin/../lib/gcc/arm-none-eabi/10.3.1/../../../../arm-none-eabi/lib/thumb/v7-m/nofp\libc.a(lib_a-strchr.o)
 .ARM.attributes
                0x00000944       0x1b g:/rt-threadstudio/platform/env_released/env/tools/gnu_gcc/arm_gcc/mingw/bin/../lib/gcc/arm-none-eabi/10.3.1/../../../../arm-none-eabi/lib/thumb/v7-m/nofp\libc.a(lib_a-strcmp.o)
 .ARM.attributes
                0x0000095f       0x2d g:/rt-threadstudio/platform/env_released/env/tools/gnu_gcc/arm_gcc/mingw/bin/../lib/gcc/arm-none-eabi/10.3.1/../../../../arm-none-eabi/lib/thumb/v7-m/nofp\libc.a(lib_a-strlen-stub.o)
 .ARM.attributes
                0x0000098c       0x2d g:/rt-threadstudio/platform/env_released/env/tools/gnu_gcc/arm_gcc/mingw/bin/../lib/gcc/arm-none-eabi/10.3.1/../../../../arm-none-eabi/lib/thumb/v7-m/nofp\libc.a(lib_a-strncat.o)
 .ARM.attributes
                0x000009b9       0x2d g:/rt-threadstudio/platform/env_released/env/tools/gnu_gcc/arm_gcc/mingw/bin/../lib/gcc/arm-none-eabi/10.3.1/../../../../arm-none-eabi/lib/thumb/v7-m/nofp\libc.a(lib_a-strncmp.o)
 .ARM.attributes
                0x000009e6       0x2d g:/rt-threadstudio/platform/env_released/env/tools/gnu_gcc/arm_gcc/mingw/bin/../lib/gcc/arm-none-eabi/10.3.1/../../../../arm-none-eabi/lib/thumb/v7-m/nofp\libc.a(lib_a-strncpy.o)
 .ARM.attributes
                0x00000a13       0x2d g:/rt-threadstudio/platform/env_released/env/tools/gnu_gcc/arm_gcc/mingw/bin/../lib/gcc/arm-none-eabi/10.3.1/../../../../arm-none-eabi/lib/thumb/v7-m/nofp\libc.a(lib_a-strrchr.o)
 .ARM.attributes
                0x00000a40       0x2d g:/rt-threadstudio/platform/env_released/env/tools/gnu_gcc/arm_gcc/mingw/bin/../lib/gcc/arm-none-eabi/10.3.1/../../../../arm-none-eabi/lib/thumb/v7-m/nofp\libc.a(lib_a-strstr.o)
 .ARM.attributes
                0x00000a6d       0x2d g:/rt-threadstudio/platform/env_released/env/tools/gnu_gcc/arm_gcc/mingw/bin/../lib/gcc/arm-none-eabi/10.3.1/../../../../arm-none-eabi/lib/thumb/v7-m/nofp\libc.a(lib_a-strtol.o)
 .ARM.attributes
                0x00000a9a       0x2d g:/rt-threadstudio/platform/env_released/env/tools/gnu_gcc/arm_gcc/mingw/bin/../lib/gcc/arm-none-eabi/10.3.1/../../../../arm-none-eabi/lib/thumb/v7-m/nofp\libc.a(lib_a-__call_atexit.o)
 .ARM.attributes
                0x00000ac7       0x2d g:/rt-threadstudio/platform/env_released/env/tools/gnu_gcc/arm_gcc/mingw/bin/../lib/gcc/arm-none-eabi/10.3.1/../../../../arm-none-eabi/lib/thumb/v7-m/nofp\libc.a(lib_a-atexit.o)
 .ARM.attributes
                0x00000af4       0x2d g:/rt-threadstudio/platform/env_released/env/tools/gnu_gcc/arm_gcc/mingw/bin/../lib/gcc/arm-none-eabi/10.3.1/../../../../arm-none-eabi/lib/thumb/v7-m/nofp\libc.a(lib_a-fini.o)
 .ARM.attributes
                0x00000b21       0x2d g:/rt-threadstudio/platform/env_released/env/tools/gnu_gcc/arm_gcc/mingw/bin/../lib/gcc/arm-none-eabi/10.3.1/../../../../arm-none-eabi/lib/thumb/v7-m/nofp\libc.a(lib_a-lock.o)
 .ARM.attributes
                0x00000b4e       0x2d g:/rt-threadstudio/platform/env_released/env/tools/gnu_gcc/arm_gcc/mingw/bin/../lib/gcc/arm-none-eabi/10.3.1/../../../../arm-none-eabi/lib/thumb/v7-m/nofp\libc.a(lib_a-__atexit.o)

.debug
 *(.debug)

.line
 *(.line)

.debug_srcinfo
 *(.debug_srcinfo)

.debug_sfnames
 *(.debug_sfnames)

.debug_aranges  0x00000000     0x15b0
 *(.debug_aranges)
 .debug_aranges
                0x00000000       0x20 build\applications\main.o
 .debug_aranges
                0x00000020       0x28 build\board\ports\user_key.o
 .debug_aranges
                0x00000048       0x28 libraries\STM32F1xx_HAL\CMSIS\Device\ST\STM32F1xx\Source\Templates\gcc\startup_stm32f103xb.o
 .debug_aranges
                0x00000070       0x50 build\board\CubeMX_Config\Src\stm32f1xx_hal_msp.o
 .debug_aranges
                0x000000c0       0x20 build\board\board.o
 .debug_aranges
                0x000000e0       0x48 build\kernel\src\mem.o
 .debug_aranges
                0x00000128       0x90 build\kernel\src\timer.o
 .debug_aranges
                0x000001b8       0x40 build\kernel\src\irq.o
 .debug_aranges
                0x000001f8       0x50 build\kernel\src\components.o
 .debug_aranges
                0x00000248       0xc0 build\kernel\src\thread.o
 .debug_aranges
                0x00000308       0x48 build\kernel\src\clock.o
 .debug_aranges
                0x00000350      0x160 build\kernel\src\ipc.o
 .debug_aranges
                0x000004b0       0x80 build\kernel\src\device.o
 .debug_aranges
                0x00000530       0x68 build\kernel\src\scheduler.o
 .debug_aranges
                0x00000598       0x50 build\kernel\src\idle.o
 .debug_aranges
                0x000005e8       0x90 build\kernel\src\object.o
 .debug_aranges
                0x00000678      0x128 build\kernel\src\kservice.o
 .debug_aranges
                0x000007a0       0x20 build\kernel\libcpu\arm\cortex-m3\context_gcc.o
 .debug_aranges
                0x000007c0       0x48 build\kernel\libcpu\arm\cortex-m3\cpuport.o
 .debug_aranges
                0x00000808       0xe0 build\kernel\components\dfs\src\dfs_posix.o
 .debug_aranges
                0x000008e8       0x68 build\kernel\components\dfs\src\dfs_fs.o
 .debug_aranges
                0x00000950       0x70 build\kernel\components\dfs\src\dfs.o
 .debug_aranges
                0x000009c0       0xa8 build\kernel\components\dfs\src\dfs_file.o
 .debug_aranges
                0x00000a68       0x30 build\kernel\components\drivers\ipc\completion.o
 .debug_aranges
                0x00000a98       0x50 build\kernel\components\drivers\ipc\dataqueue.o
 .debug_aranges
                0x00000ae8       0x88 build\kernel\components\drivers\misc\pin.o
 .debug_aranges
                0x00000b70       0x60 build\kernel\components\drivers\serial\serial.o
 .debug_aranges
                0x00000bd0       0x88 build\kernel\components\finsh\shell.o
 .debug_aranges
                0x00000c58       0x50 build\kernel\components\finsh\msh.o
 .debug_aranges
                0x00000ca8       0x30 build\kernel\components\finsh\msh_parse.o
 .debug_aranges
                0x00000cd8       0x80 build\kernel\components\finsh\cmd.o
 .debug_aranges
                0x00000d58       0x98 build\kernel\components\finsh\msh_file.o
 .debug_aranges
                0x00000df0       0x98 build\kernel\components\libc\compilers\common\cstring.o
 .debug_aranges
                0x00000e88       0xf0 build\kernel\components\libc\compilers\newlib\syscalls.o
 .debug_aranges
                0x00000f78       0x30 libraries\STM32F1xx_HAL\STM32F1xx_HAL_Driver\Src\stm32f1xx_hal_rcc_ex.o
 .debug_aranges
                0x00000fa8       0x90 libraries\STM32F1xx_HAL\STM32F1xx_HAL_Driver\Src\stm32f1xx_hal_cortex.o
 .debug_aranges
                0x00001038       0x88 libraries\STM32F1xx_HAL\STM32F1xx_HAL_Driver\Src\stm32f1xx_hal_rcc.o
 .debug_aranges
                0x000010c0       0x78 libraries\STM32F1xx_HAL\STM32F1xx_HAL_Driver\Src\stm32f1xx_hal_dma.o
 .debug_aranges
                0x00001138       0x28 libraries\STM32F1xx_HAL\CMSIS\Device\ST\STM32F1xx\Source\Templates\system_stm32f1xx.o
 .debug_aranges
                0x00001160      0x198 libraries\STM32F1xx_HAL\STM32F1xx_HAL_Driver\Src\stm32f1xx_hal_uart.o
 .debug_aranges
                0x000012f8       0xd8 libraries\STM32F1xx_HAL\STM32F1xx_HAL_Driver\Src\stm32f1xx_hal.o
 .debug_aranges
                0x000013d0       0x58 libraries\STM32F1xx_HAL\STM32F1xx_HAL_Driver\Src\stm32f1xx_hal_gpio.o
 .debug_aranges
                0x00001428       0x98 libraries\HAL_Drivers\drv_gpio.o
 .debug_aranges
                0x000014c0       0x80 libraries\HAL_Drivers\drv_usart.o
 .debug_aranges
                0x00001540       0x70 libraries\HAL_Drivers\drv_common.o

.debug_pubnames
 *(.debug_pubnames)

.debug_info     0x00000000    0x3522d
 *(.debug_info .gnu.linkonce.wi.*)
 .debug_info    0x00000000      0x142 build\applications\main.o
 .debug_info    0x00000142      0x1f9 build\board\ports\user_key.o
 .debug_info    0x0000033b       0x22 libraries\STM32F1xx_HAL\CMSIS\Device\ST\STM32F1xx\Source\Templates\gcc\startup_stm32f103xb.o
 .debug_info    0x0000035d     0x1011 build\board\CubeMX_Config\Src\stm32f1xx_hal_msp.o
 .debug_info    0x0000136e      0x364 build\board\board.o
 .debug_info    0x000016d2      0xd53 build\kernel\src\mem.o
 .debug_info    0x00002425     0x1a0b build\kernel\src\timer.o
 .debug_info    0x00003e30      0x264 build\kernel\src\irq.o
 .debug_info    0x00004094      0x7bb build\kernel\src\components.o
 .debug_info    0x0000484f     0x1a96 build\kernel\src\thread.o
 .debug_info    0x000062e5      0x5f1 build\kernel\src\clock.o
 .debug_info    0x000068d6     0x669b build\kernel\src\ipc.o
 .debug_info    0x0000cf71     0x1136 build\kernel\src\device.o
 .debug_info    0x0000e0a7      0xc82 build\kernel\src\scheduler.o
 .debug_info    0x0000ed29      0x9c9 build\kernel\src\idle.o
 .debug_info    0x0000f6f2      0xf77 build\kernel\src\object.o
 .debug_info    0x00010669     0x2481 build\kernel\src\kservice.o
 .debug_info    0x00012aea       0x26 build\kernel\libcpu\arm\cortex-m3\context_gcc.o
 .debug_info    0x00012b10      0x995 build\kernel\libcpu\arm\cortex-m3\cpuport.o
 .debug_info    0x000134a5     0x2191 build\kernel\components\dfs\src\dfs_posix.o
 .debug_info    0x00015636     0x1aad build\kernel\components\dfs\src\dfs_fs.o
 .debug_info    0x000170e3     0x1eb7 build\kernel\components\dfs\src\dfs.o
 .debug_info    0x00018f9a     0x2489 build\kernel\components\dfs\src\dfs_file.o
 .debug_info    0x0001b423      0xa37 build\kernel\components\drivers\ipc\completion.o
 .debug_info    0x0001be5a     0x14a4 build\kernel\components\drivers\ipc\dataqueue.o
 .debug_info    0x0001d2fe     0x1817 build\kernel\components\drivers\misc\pin.o
 .debug_info    0x0001eb15     0x2384 build\kernel\components\drivers\serial\serial.o
 .debug_info    0x00020e99     0x1708 build\kernel\components\finsh\shell.o
 .debug_info    0x000225a1     0x1011 build\kernel\components\finsh\msh.o
 .debug_info    0x000235b2      0x1ae build\kernel\components\finsh\msh_parse.o
 .debug_info    0x00023760     0x31f9 build\kernel\components\finsh\cmd.o
 .debug_info    0x00026959     0x2799 build\kernel\components\finsh\msh_file.o
 .debug_info    0x000290f2      0x904 build\kernel\components\libc\compilers\common\cstring.o
 .debug_info    0x000299f6     0x1bdc build\kernel\components\libc\compilers\newlib\syscalls.o
 .debug_info    0x0002b5d2      0x475 libraries\STM32F1xx_HAL\STM32F1xx_HAL_Driver\Src\stm32f1xx_hal_rcc_ex.o
 .debug_info    0x0002ba47      0xe1a libraries\STM32F1xx_HAL\STM32F1xx_HAL_Driver\Src\stm32f1xx_hal_cortex.o
 .debug_info    0x0002c861      0xb0a libraries\STM32F1xx_HAL\STM32F1xx_HAL_Driver\Src\stm32f1xx_hal_rcc.o
 .debug_info    0x0002d36b      0x8d6 libraries\STM32F1xx_HAL\STM32F1xx_HAL_Driver\Src\stm32f1xx_hal_dma.o
 .debug_info    0x0002dc41      0x26e libraries\STM32F1xx_HAL\CMSIS\Device\ST\STM32F1xx\Source\Templates\system_stm32f1xx.o
 .debug_info    0x0002deaf     0x1f03 libraries\STM32F1xx_HAL\STM32F1xx_HAL_Driver\Src\stm32f1xx_hal_uart.o
 .debug_info    0x0002fdb2      0x887 libraries\STM32F1xx_HAL\STM32F1xx_HAL_Driver\Src\stm32f1xx_hal.o
 .debug_info    0x00030639      0x6d9 libraries\STM32F1xx_HAL\STM32F1xx_HAL_Driver\Src\stm32f1xx_hal_gpio.o
 .debug_info    0x00030d12     0x15a6 libraries\HAL_Drivers\drv_gpio.o
 .debug_info    0x000322b8     0x2307 libraries\HAL_Drivers\drv_usart.o
 .debug_info    0x000345bf      0xc6e libraries\HAL_Drivers\drv_common.o

.debug_abbrev   0x00000000     0x854b
 *(.debug_abbrev)
 .debug_abbrev  0x00000000       0x91 build\applications\main.o
 .debug_abbrev  0x00000091      0x122 build\board\ports\user_key.o
 .debug_abbrev  0x000001b3       0x12 libraries\STM32F1xx_HAL\CMSIS\Device\ST\STM32F1xx\Source\Templates\gcc\startup_stm32f103xb.o
 .debug_abbrev  0x000001c5      0x254 build\board\CubeMX_Config\Src\stm32f1xx_hal_msp.o
 .debug_abbrev  0x00000419      0x130 build\board\board.o
 .debug_abbrev  0x00000549      0x26f build\kernel\src\mem.o
 .debug_abbrev  0x000007b8      0x3d9 build\kernel\src\timer.o
 .debug_abbrev  0x00000b91      0x132 build\kernel\src\irq.o
 .debug_abbrev  0x00000cc3      0x2b5 build\kernel\src\components.o
 .debug_abbrev  0x00000f78      0x386 build\kernel\src\thread.o
 .debug_abbrev  0x000012fe      0x22c build\kernel\src\clock.o
 .debug_abbrev  0x0000152a      0x359 build\kernel\src\ipc.o
 .debug_abbrev  0x00001883      0x294 build\kernel\src\device.o
 .debug_abbrev  0x00001b17      0x34d build\kernel\src\scheduler.o
 .debug_abbrev  0x00001e64      0x340 build\kernel\src\idle.o
 .debug_abbrev  0x000021a4      0x342 build\kernel\src\object.o
 .debug_abbrev  0x000024e6      0x556 build\kernel\src\kservice.o
 .debug_abbrev  0x00002a3c       0x14 build\kernel\libcpu\arm\cortex-m3\context_gcc.o
 .debug_abbrev  0x00002a50      0x2b4 build\kernel\libcpu\arm\cortex-m3\cpuport.o
 .debug_abbrev  0x00002d04      0x40b build\kernel\components\dfs\src\dfs_posix.o
 .debug_abbrev  0x0000310f      0x39d build\kernel\components\dfs\src\dfs_fs.o
 .debug_abbrev  0x000034ac      0x4e3 build\kernel\components\dfs\src\dfs.o
 .debug_abbrev  0x0000398f      0x496 build\kernel\components\dfs\src\dfs_file.o
 .debug_abbrev  0x00003e25      0x235 build\kernel\components\drivers\ipc\completion.o
 .debug_abbrev  0x0000405a      0x374 build\kernel\components\drivers\ipc\dataqueue.o
 .debug_abbrev  0x000043ce      0x41c build\kernel\components\drivers\misc\pin.o
 .debug_abbrev  0x000047ea      0x3f9 build\kernel\components\drivers\serial\serial.o
 .debug_abbrev  0x00004be3      0x4b7 build\kernel\components\finsh\shell.o
 .debug_abbrev  0x0000509a      0x42a build\kernel\components\finsh\msh.o
 .debug_abbrev  0x000054c4       0xf8 build\kernel\components\finsh\msh_parse.o
 .debug_abbrev  0x000055bc      0x3e4 build\kernel\components\finsh\cmd.o
 .debug_abbrev  0x000059a0      0x4fd build\kernel\components\finsh\msh_file.o
 .debug_abbrev  0x00005e9d      0x27e build\kernel\components\libc\compilers\common\cstring.o
 .debug_abbrev  0x0000611b      0x3a7 build\kernel\components\libc\compilers\newlib\syscalls.o
 .debug_abbrev  0x000064c2      0x1d3 libraries\STM32F1xx_HAL\STM32F1xx_HAL_Driver\Src\stm32f1xx_hal_rcc_ex.o
 .debug_abbrev  0x00006695      0x35e libraries\STM32F1xx_HAL\STM32F1xx_HAL_Driver\Src\stm32f1xx_hal_cortex.o
 .debug_abbrev  0x000069f3      0x301 libraries\STM32F1xx_HAL\STM32F1xx_HAL_Driver\Src\stm32f1xx_hal_rcc.o
 .debug_abbrev  0x00006cf4      0x25f libraries\STM32F1xx_HAL\STM32F1xx_HAL_Driver\Src\stm32f1xx_hal_dma.o
 .debug_abbrev  0x00006f53      0x140 libraries\STM32F1xx_HAL\CMSIS\Device\ST\STM32F1xx\Source\Templates\system_stm32f1xx.o
 .debug_abbrev  0x00007093      0x3bd libraries\STM32F1xx_HAL\STM32F1xx_HAL_Driver\Src\stm32f1xx_hal_uart.o
 .debug_abbrev  0x00007450      0x259 libraries\STM32F1xx_HAL\STM32F1xx_HAL_Driver\Src\stm32f1xx_hal.o
 .debug_abbrev  0x000076a9      0x220 libraries\STM32F1xx_HAL\STM32F1xx_HAL_Driver\Src\stm32f1xx_hal_gpio.o
 .debug_abbrev  0x000078c9      0x413 libraries\HAL_Drivers\drv_gpio.o
 .debug_abbrev  0x00007cdc      0x500 libraries\HAL_Drivers\drv_usart.o
 .debug_abbrev  0x000081dc      0x36f libraries\HAL_Drivers\drv_common.o

.debug_line     0x00000000    0x1f06c
 *(.debug_line)
 .debug_line    0x00000000       0xd3 build\applications\main.o
 .debug_line    0x000000d3       0xf6 build\board\ports\user_key.o
 .debug_line    0x000001c9       0xbc libraries\STM32F1xx_HAL\CMSIS\Device\ST\STM32F1xx\Source\Templates\gcc\startup_stm32f103xb.o
 .debug_line    0x00000285      0x51a build\board\CubeMX_Config\Src\stm32f1xx_hal_msp.o
 .debug_line    0x0000079f      0x2a4 build\board\board.o
 .debug_line    0x00000a43      0xa91 build\kernel\src\mem.o
 .debug_line    0x000014d4     0x14ce build\kernel\src\timer.o
 .debug_line    0x000029a2      0x280 build\kernel\src\irq.o
 .debug_line    0x00002c22      0x34a build\kernel\src\components.o
 .debug_line    0x00002f6c      0xd62 build\kernel\src\thread.o
 .debug_line    0x00003cce      0x300 build\kernel\src\clock.o
 .debug_line    0x00003fce     0x44b7 build\kernel\src\ipc.o
 .debug_line    0x00008485      0x8f5 build\kernel\src\device.o
 .debug_line    0x00008d7a      0x7b4 build\kernel\src\scheduler.o
 .debug_line    0x0000952e      0x4f6 build\kernel\src\idle.o
 .debug_line    0x00009a24      0xb7f build\kernel\src\object.o
 .debug_line    0x0000a5a3     0x16dc build\kernel\src\kservice.o
 .debug_line    0x0000bc7f       0xc8 build\kernel\libcpu\arm\cortex-m3\context_gcc.o
 .debug_line    0x0000bd47      0x4a9 build\kernel\libcpu\arm\cortex-m3\cpuport.o
 .debug_line    0x0000c1f0      0xd1b build\kernel\components\dfs\src\dfs_posix.o
 .debug_line    0x0000cf0b      0xb62 build\kernel\components\dfs\src\dfs_fs.o
 .debug_line    0x0000da6d      0xd36 build\kernel\components\dfs\src\dfs.o
 .debug_line    0x0000e7a3     0x102c build\kernel\components\dfs\src\dfs_file.o
 .debug_line    0x0000f7cf      0x4f7 build\kernel\components\drivers\ipc\completion.o
 .debug_line    0x0000fcc6      0xd19 build\kernel\components\drivers\ipc\dataqueue.o
 .debug_line    0x000109df      0xac7 build\kernel\components\drivers\misc\pin.o
 .debug_line    0x000114a6     0x13d1 build\kernel\components\drivers\serial\serial.o
 .debug_line    0x00012877      0xe07 build\kernel\components\finsh\shell.o
 .debug_line    0x0001367e      0xa53 build\kernel\components\finsh\msh.o
 .debug_line    0x000140d1      0x22b build\kernel\components\finsh\msh_parse.o
 .debug_line    0x000142fc     0x15f5 build\kernel\components\finsh\cmd.o
 .debug_line    0x000158f1      0xede build\kernel\components\finsh\msh_file.o
 .debug_line    0x000167cf      0x63a build\kernel\components\libc\compilers\common\cstring.o
 .debug_line    0x00016e09      0x75c build\kernel\components\libc\compilers\newlib\syscalls.o
 .debug_line    0x00017565      0x539 libraries\STM32F1xx_HAL\STM32F1xx_HAL_Driver\Src\stm32f1xx_hal_rcc_ex.o
 .debug_line    0x00017a9e      0x71d libraries\STM32F1xx_HAL\STM32F1xx_HAL_Driver\Src\stm32f1xx_hal_cortex.o
 .debug_line    0x000181bb      0xdc2 libraries\STM32F1xx_HAL\STM32F1xx_HAL_Driver\Src\stm32f1xx_hal_rcc.o
 .debug_line    0x00018f7d      0xcc0 libraries\STM32F1xx_HAL\STM32F1xx_HAL_Driver\Src\stm32f1xx_hal_dma.o
 .debug_line    0x00019c3d      0x278 libraries\STM32F1xx_HAL\CMSIS\Device\ST\STM32F1xx\Source\Templates\system_stm32f1xx.o
 .debug_line    0x00019eb5     0x2610 libraries\STM32F1xx_HAL\STM32F1xx_HAL_Driver\Src\stm32f1xx_hal_uart.o
 .debug_line    0x0001c4c5      0x5b4 libraries\STM32F1xx_HAL\STM32F1xx_HAL_Driver\Src\stm32f1xx_hal.o
 .debug_line    0x0001ca79      0x651 libraries\STM32F1xx_HAL\STM32F1xx_HAL_Driver\Src\stm32f1xx_hal_gpio.o
 .debug_line    0x0001d0ca      0xaa8 libraries\HAL_Drivers\drv_gpio.o
 .debug_line    0x0001db72      0xee0 libraries\HAL_Drivers\drv_usart.o
 .debug_line    0x0001ea52      0x61a libraries\HAL_Drivers\drv_common.o

.debug_frame    0x00000000     0x4874
 *(.debug_frame)
 .debug_frame   0x00000000       0x28 build\applications\main.o
 .debug_frame   0x00000028       0x4c build\board\ports\user_key.o
 .debug_frame   0x00000074       0xcc build\board\CubeMX_Config\Src\stm32f1xx_hal_msp.o
 .debug_frame   0x00000140       0x38 build\board\board.o
 .debug_frame   0x00000178       0xe4 build\kernel\src\mem.o
 .debug_frame   0x0000025c      0x1c8 build\kernel\src\timer.o
 .debug_frame   0x00000424       0x80 build\kernel\src\irq.o
 .debug_frame   0x000004a4      0x110 build\kernel\src\components.o
 .debug_frame   0x000005b4      0x28c build\kernel\src\thread.o
 .debug_frame   0x00000840       0x9c build\kernel\src\clock.o
 .debug_frame   0x000008dc      0x56c build\kernel\src\ipc.o
 .debug_frame   0x00000e48      0x1ac build\kernel\src\device.o
 .debug_frame   0x00000ff4      0x140 build\kernel\src\scheduler.o
 .debug_frame   0x00001134       0xcc build\kernel\src\idle.o
 .debug_frame   0x00001200      0x1a8 build\kernel\src\object.o
 .debug_frame   0x000013a8      0x42c build\kernel\src\kservice.o
 .debug_frame   0x000017d4       0x8c build\kernel\libcpu\arm\cortex-m3\cpuport.o
 .debug_frame   0x00001860      0x330 build\kernel\components\dfs\src\dfs_posix.o
 .debug_frame   0x00001b90      0x164 build\kernel\components\dfs\src\dfs_fs.o
 .debug_frame   0x00001cf4      0x160 build\kernel\components\dfs\src\dfs.o
 .debug_frame   0x00001e54      0x26c build\kernel\components\dfs\src\dfs_file.o
 .debug_frame   0x000020c0       0x88 build\kernel\components\drivers\ipc\completion.o
 .debug_frame   0x00002148      0x12c build\kernel\components\drivers\ipc\dataqueue.o
 .debug_frame   0x00002274      0x240 build\kernel\components\drivers\misc\pin.o
 .debug_frame   0x000024b4      0x184 build\kernel\components\drivers\serial\serial.o
 .debug_frame   0x00002638      0x1a4 build\kernel\components\finsh\shell.o
 .debug_frame   0x000027dc      0x12c build\kernel\components\finsh\msh.o
 .debug_frame   0x00002908       0x5c build\kernel\components\finsh\msh_parse.o
 .debug_frame   0x00002964      0x218 build\kernel\components\finsh\cmd.o
 .debug_frame   0x00002b7c      0x288 build\kernel\components\finsh\msh_file.o
 .debug_frame   0x00002e04      0x160 build\kernel\components\libc\compilers\common\cstring.o
 .debug_frame   0x00002f64      0x210 build\kernel\components\libc\compilers\newlib\syscalls.o
 .debug_frame   0x00003174       0x74 libraries\STM32F1xx_HAL\STM32F1xx_HAL_Driver\Src\stm32f1xx_hal_rcc_ex.o
 .debug_frame   0x000031e8      0x128 libraries\STM32F1xx_HAL\STM32F1xx_HAL_Driver\Src\stm32f1xx_hal_cortex.o
 .debug_frame   0x00003310      0x1a8 libraries\STM32F1xx_HAL\STM32F1xx_HAL_Driver\Src\stm32f1xx_hal_rcc.o
 .debug_frame   0x000034b8      0x188 libraries\STM32F1xx_HAL\STM32F1xx_HAL_Driver\Src\stm32f1xx_hal_dma.o
 .debug_frame   0x00003640       0x30 libraries\STM32F1xx_HAL\CMSIS\Device\ST\STM32F1xx\Source\Templates\system_stm32f1xx.o
 .debug_frame   0x00003670      0x5e4 libraries\STM32F1xx_HAL\STM32F1xx_HAL_Driver\Src\stm32f1xx_hal_uart.o
 .debug_frame   0x00003c54      0x1d4 libraries\STM32F1xx_HAL\STM32F1xx_HAL_Driver\Src\stm32f1xx_hal.o
 .debug_frame   0x00003e28       0xec libraries\STM32F1xx_HAL\STM32F1xx_HAL_Driver\Src\stm32f1xx_hal_gpio.o
 .debug_frame   0x00003f14      0x1e4 libraries\HAL_Drivers\drv_gpio.o
 .debug_frame   0x000040f8      0x1bc libraries\HAL_Drivers\drv_usart.o
 .debug_frame   0x000042b4      0x12c libraries\HAL_Drivers\drv_common.o
 .debug_frame   0x000043e0       0x30 g:/rt-threadstudio/platform/env_released/env/tools/gnu_gcc/arm_gcc/mingw/bin/../lib/gcc/arm-none-eabi/10.3.1/../../../../arm-none-eabi/lib/thumb/v7-m/nofp\libc.a(lib_a-atoi.o)
 .debug_frame   0x00004410       0x28 g:/rt-threadstudio/platform/env_released/env/tools/gnu_gcc/arm_gcc/mingw/bin/../lib/gcc/arm-none-eabi/10.3.1/../../../../arm-none-eabi/lib/thumb/v7-m/nofp\libc.a(lib_a-memcmp.o)
 .debug_frame   0x00004438       0x2c g:/rt-threadstudio/platform/env_released/env/tools/gnu_gcc/arm_gcc/mingw/bin/../lib/gcc/arm-none-eabi/10.3.1/../../../../arm-none-eabi/lib/thumb/v7-m/nofp\libc.a(lib_a-memset.o)
 .debug_frame   0x00004464       0x34 g:/rt-threadstudio/platform/env_released/env/tools/gnu_gcc/arm_gcc/mingw/bin/../lib/gcc/arm-none-eabi/10.3.1/../../../../arm-none-eabi/lib/thumb/v7-m/nofp\libc.a(lib_a-strchr.o)
 .debug_frame   0x00004498       0x34 g:/rt-threadstudio/platform/env_released/env/tools/gnu_gcc/arm_gcc/mingw/bin/../lib/gcc/arm-none-eabi/10.3.1/../../../../arm-none-eabi/lib/thumb/v7-m/nofp\libc.a(lib_a-strcmp.o)
 .debug_frame   0x000044cc       0x20 g:/rt-threadstudio/platform/env_released/env/tools/gnu_gcc/arm_gcc/mingw/bin/../lib/gcc/arm-none-eabi/10.3.1/../../../../arm-none-eabi/lib/thumb/v7-m/nofp\libc.a(lib_a-strlen-stub.o)
 .debug_frame   0x000044ec       0x30 g:/rt-threadstudio/platform/env_released/env/tools/gnu_gcc/arm_gcc/mingw/bin/../lib/gcc/arm-none-eabi/10.3.1/../../../../arm-none-eabi/lib/thumb/v7-m/nofp\libc.a(lib_a-strncat.o)
 .debug_frame   0x0000451c       0x38 g:/rt-threadstudio/platform/env_released/env/tools/gnu_gcc/arm_gcc/mingw/bin/../lib/gcc/arm-none-eabi/10.3.1/../../../../arm-none-eabi/lib/thumb/v7-m/nofp\libc.a(lib_a-strncmp.o)
 .debug_frame   0x00004554       0x2c g:/rt-threadstudio/platform/env_released/env/tools/gnu_gcc/arm_gcc/mingw/bin/../lib/gcc/arm-none-eabi/10.3.1/../../../../arm-none-eabi/lib/thumb/v7-m/nofp\libc.a(lib_a-strncpy.o)
 .debug_frame   0x00004580       0x34 g:/rt-threadstudio/platform/env_released/env/tools/gnu_gcc/arm_gcc/mingw/bin/../lib/gcc/arm-none-eabi/10.3.1/../../../../arm-none-eabi/lib/thumb/v7-m/nofp\libc.a(lib_a-strrchr.o)
 .debug_frame   0x000045b4       0x9c g:/rt-threadstudio/platform/env_released/env/tools/gnu_gcc/arm_gcc/mingw/bin/../lib/gcc/arm-none-eabi/10.3.1/../../../../arm-none-eabi/lib/thumb/v7-m/nofp\libc.a(lib_a-strstr.o)
 .debug_frame   0x00004650       0x90 g:/rt-threadstudio/platform/env_released/env/tools/gnu_gcc/arm_gcc/mingw/bin/../lib/gcc/arm-none-eabi/10.3.1/../../../../arm-none-eabi/lib/thumb/v7-m/nofp\libc.a(lib_a-strtol.o)
 .debug_frame   0x000046e0       0x5c g:/rt-threadstudio/platform/env_released/env/tools/gnu_gcc/arm_gcc/mingw/bin/../lib/gcc/arm-none-eabi/10.3.1/../../../../arm-none-eabi/lib/thumb/v7-m/nofp\libc.a(lib_a-__call_atexit.o)
 .debug_frame   0x0000473c       0x20 g:/rt-threadstudio/platform/env_released/env/tools/gnu_gcc/arm_gcc/mingw/bin/../lib/gcc/arm-none-eabi/10.3.1/../../../../arm-none-eabi/lib/thumb/v7-m/nofp\libc.a(lib_a-atexit.o)
 .debug_frame   0x0000475c       0x34 g:/rt-threadstudio/platform/env_released/env/tools/gnu_gcc/arm_gcc/mingw/bin/../lib/gcc/arm-none-eabi/10.3.1/../../../../arm-none-eabi/lib/thumb/v7-m/nofp\libc.a(lib_a-fini.o)
 .debug_frame   0x00004790       0xb0 g:/rt-threadstudio/platform/env_released/env/tools/gnu_gcc/arm_gcc/mingw/bin/../lib/gcc/arm-none-eabi/10.3.1/../../../../arm-none-eabi/lib/thumb/v7-m/nofp\libc.a(lib_a-lock.o)
 .debug_frame   0x00004840       0x34 g:/rt-threadstudio/platform/env_released/env/tools/gnu_gcc/arm_gcc/mingw/bin/../lib/gcc/arm-none-eabi/10.3.1/../../../../arm-none-eabi/lib/thumb/v7-m/nofp\libc.a(lib_a-__atexit.o)

.debug_str      0x00000000     0x64be
 *(.debug_str)
 .debug_str     0x00000000      0x16b build\applications\main.o
                                0x1a4 (size before relaxing)
 .debug_str     0x0000016b       0x89 build\board\ports\user_key.o
                                0x20f (size before relaxing)
 .debug_str     0x000001f4       0x6b libraries\STM32F1xx_HAL\CMSIS\Device\ST\STM32F1xx\Source\Templates\gcc\startup_stm32f103xb.o
                                 0x9e (size before relaxing)
 .debug_str     0x0000025f      0x7c0 build\board\CubeMX_Config\Src\stm32f1xx_hal_msp.o
                                0x981 (size before relaxing)
 .debug_str     0x00000a1f      0x218 build\board\board.o
                                0x383 (size before relaxing)
 .debug_str     0x00000c37      0x386 build\kernel\src\mem.o
                                0x540 (size before relaxing)
 .debug_str     0x00000fbd      0x3f6 build\kernel\src\timer.o
                                0x865 (size before relaxing)
 .debug_str     0x000013b3       0xdd build\kernel\src\irq.o
                                0x29d (size before relaxing)
 .debug_str     0x00001490      0x162 build\kernel\src\components.o
                                0x4f1 (size before relaxing)
 .debug_str     0x000015f2      0x21a build\kernel\src\thread.o
                                0x879 (size before relaxing)
 .debug_str     0x0000180c       0x70 build\kernel\src\clock.o
                                0x3f8 (size before relaxing)
 .debug_str     0x0000187c      0x460 build\kernel\src\ipc.o
                                0xaf2 (size before relaxing)
 .debug_str     0x00001cdc      0x42c build\kernel\src\device.o
                                0x8ae (size before relaxing)
 .debug_str     0x00002108      0x1fc build\kernel\src\scheduler.o
                                0x6a4 (size before relaxing)
 .debug_str     0x00002304       0xf6 build\kernel\src\idle.o
                                0x50e (size before relaxing)
 .debug_str     0x000023fa      0x268 build\kernel\src\object.o
                                0x78a (size before relaxing)
 .debug_str     0x00002662      0x349 build\kernel\src\kservice.o
                                0xc3a (size before relaxing)
 .debug_str     0x000029ab       0x2d build\kernel\libcpu\arm\cortex-m3\context_gcc.o
                                 0x6e (size before relaxing)
 .debug_str     0x000029d8      0x17b build\kernel\libcpu\arm\cortex-m3\cpuport.o
                                0x3b5 (size before relaxing)
 .debug_str     0x00002b53      0x399 build\kernel\components\dfs\src\dfs_posix.o
                                0xa4f (size before relaxing)
 .debug_str     0x00002eec      0x14c build\kernel\components\dfs\src\dfs_fs.o
                                0xa87 (size before relaxing)
 .debug_str     0x00003038      0x118 build\kernel\components\dfs\src\dfs.o
                                0xbde (size before relaxing)
 .debug_str     0x00003150       0xd8 build\kernel\components\dfs\src\dfs_file.o
                                0xa57 (size before relaxing)
 .debug_str     0x00003228       0x84 build\kernel\components\drivers\ipc\completion.o
                                0x4c3 (size before relaxing)
 .debug_str     0x000032ac      0x11b build\kernel\components\drivers\ipc\dataqueue.o
                                0x600 (size before relaxing)
 .debug_str     0x000033c7      0x179 build\kernel\components\drivers\misc\pin.o
                                0x841 (size before relaxing)
 .debug_str     0x00003540      0x2cc build\kernel\components\drivers\serial\serial.o
                                0xac2 (size before relaxing)
 .debug_str     0x0000380c      0x2a0 build\kernel\components\finsh\shell.o
                                0xafa (size before relaxing)
 .debug_str     0x00003aac      0x196 build\kernel\components\finsh\msh.o
                                0x4ba (size before relaxing)
 .debug_str     0x00003c42       0x47 build\kernel\components\finsh\msh_parse.o
                                0x1c0 (size before relaxing)
 .debug_str     0x00003c89      0x429 build\kernel\components\finsh\cmd.o
                                0xe97 (size before relaxing)
 .debug_str     0x000040b2      0x3a2 build\kernel\components\finsh\msh_file.o
                                0xcb2 (size before relaxing)
 .debug_str     0x00004454       0xc2 build\kernel\components\libc\compilers\common\cstring.o
                                0x2ac (size before relaxing)
 .debug_str     0x00004516      0x4b5 build\kernel\components\libc\compilers\newlib\syscalls.o
                                0xc6b (size before relaxing)
 .debug_str     0x000049cb      0x142 libraries\STM32F1xx_HAL\STM32F1xx_HAL_Driver\Src\stm32f1xx_hal_rcc_ex.o
                                0x3c7 (size before relaxing)
 .debug_str     0x00004b0d      0x6f6 libraries\STM32F1xx_HAL\STM32F1xx_HAL_Driver\Src\stm32f1xx_hal_cortex.o
                                0x8c7 (size before relaxing)
 .debug_str     0x00005203      0x1e5 libraries\STM32F1xx_HAL\STM32F1xx_HAL_Driver\Src\stm32f1xx_hal_rcc.o
                                0x61f (size before relaxing)
 .debug_str     0x000053e8      0x24c libraries\STM32F1xx_HAL\STM32F1xx_HAL_Driver\Src\stm32f1xx_hal_dma.o
                                0x5f1 (size before relaxing)
 .debug_str     0x00005634       0x89 libraries\STM32F1xx_HAL\CMSIS\Device\ST\STM32F1xx\Source\Templates\system_stm32f1xx.o
                                0x272 (size before relaxing)
 .debug_str     0x000056bd      0x606 libraries\STM32F1xx_HAL\STM32F1xx_HAL_Driver\Src\stm32f1xx_hal_uart.o
                                0xc82 (size before relaxing)
 .debug_str     0x00005cc3      0x27a libraries\STM32F1xx_HAL\STM32F1xx_HAL_Driver\Src\stm32f1xx_hal.o
                                0x818 (size before relaxing)
 .debug_str     0x00005f3d      0x150 libraries\STM32F1xx_HAL\STM32F1xx_HAL_Driver\Src\stm32f1xx_hal_gpio.o
                                0x3f4 (size before relaxing)
 .debug_str     0x0000608d      0x1de libraries\HAL_Drivers\drv_gpio.o
                                0xcd5 (size before relaxing)
 .debug_str     0x0000626b      0x1ad libraries\HAL_Drivers\drv_usart.o
                               0x11d2 (size before relaxing)
 .debug_str     0x00006418       0xa6 libraries\HAL_Drivers\drv_common.o
                                0x83f (size before relaxing)

.debug_loc      0x00000000    0x22ffd
 *(.debug_loc)
 .debug_loc     0x00000000       0x20 build\applications\main.o
 .debug_loc     0x00000020       0x89 build\board\ports\user_key.o
 .debug_loc     0x000000a9      0x259 build\board\CubeMX_Config\Src\stm32f1xx_hal_msp.o
 .debug_loc     0x00000302       0x5f build\board\board.o
 .debug_loc     0x00000361      0xbea build\kernel\src\mem.o
 .debug_loc     0x00000f4b     0x10b6 build\kernel\src\timer.o
 .debug_loc     0x00002001      0x10d build\kernel\src\irq.o
 .debug_loc     0x0000210e      0x208 build\kernel\src\components.o
 .debug_loc     0x00002316      0xef2 build\kernel\src\thread.o
 .debug_loc     0x00003208      0x1d2 build\kernel\src\clock.o
 .debug_loc     0x000033da     0x482b build\kernel\src\ipc.o
 .debug_loc     0x00007c05      0xc10 build\kernel\src\device.o
 .debug_loc     0x00008815      0x5d4 build\kernel\src\scheduler.o
 .debug_loc     0x00008de9      0x46f build\kernel\src\idle.o
 .debug_loc     0x00009258      0xc2d build\kernel\src\object.o
 .debug_loc     0x00009e85     0x2bd2 build\kernel\src\kservice.o
 .debug_loc     0x0000ca57      0x23e build\kernel\libcpu\arm\cortex-m3\cpuport.o
 .debug_loc     0x0000cc95     0x150a build\kernel\components\dfs\src\dfs_posix.o
 .debug_loc     0x0000e19f      0xdaa build\kernel\components\dfs\src\dfs_fs.o
 .debug_loc     0x0000ef49      0x9f9 build\kernel\components\dfs\src\dfs.o
 .debug_loc     0x0000f942     0x1a5a build\kernel\components\dfs\src\dfs_file.o
 .debug_loc     0x0001139c      0x43a build\kernel\components\drivers\ipc\completion.o
 .debug_loc     0x000117d6      0xc1a build\kernel\components\drivers\ipc\dataqueue.o
 .debug_loc     0x000123f0     0x14a4 build\kernel\components\drivers\misc\pin.o
 .debug_loc     0x00013894     0x1ce4 build\kernel\components\drivers\serial\serial.o
 .debug_loc     0x00015578      0x6ef build\kernel\components\finsh\shell.o
 .debug_loc     0x00015c67      0xe59 build\kernel\components\finsh\msh.o
 .debug_loc     0x00016ac0      0x25f build\kernel\components\finsh\msh_parse.o
 .debug_loc     0x00016d1f     0x218f build\kernel\components\finsh\cmd.o
 .debug_loc     0x00018eae     0x1b6f build\kernel\components\finsh\msh_file.o
 .debug_loc     0x0001aa1d      0xbe7 build\kernel\components\libc\compilers\common\cstring.o
 .debug_loc     0x0001b604      0xc4b build\kernel\components\libc\compilers\newlib\syscalls.o
 .debug_loc     0x0001c24f      0x48a libraries\STM32F1xx_HAL\STM32F1xx_HAL_Driver\Src\stm32f1xx_hal_rcc_ex.o
 .debug_loc     0x0001c6d9      0x7bb libraries\STM32F1xx_HAL\STM32F1xx_HAL_Driver\Src\stm32f1xx_hal_cortex.o
 .debug_loc     0x0001ce94      0x780 libraries\STM32F1xx_HAL\STM32F1xx_HAL_Driver\Src\stm32f1xx_hal_rcc.o
 .debug_loc     0x0001d614      0xb15 libraries\STM32F1xx_HAL\STM32F1xx_HAL_Driver\Src\stm32f1xx_hal_dma.o
 .debug_loc     0x0001e129       0xe7 libraries\STM32F1xx_HAL\CMSIS\Device\ST\STM32F1xx\Source\Templates\system_stm32f1xx.o
 .debug_loc     0x0001e210     0x2703 libraries\STM32F1xx_HAL\STM32F1xx_HAL_Driver\Src\stm32f1xx_hal_uart.o
 .debug_loc     0x00020913      0x208 libraries\STM32F1xx_HAL\STM32F1xx_HAL_Driver\Src\stm32f1xx_hal.o
 .debug_loc     0x00020b1b      0x538 libraries\STM32F1xx_HAL\STM32F1xx_HAL_Driver\Src\stm32f1xx_hal_gpio.o
 .debug_loc     0x00021053      0xc70 libraries\HAL_Drivers\drv_gpio.o
 .debug_loc     0x00021cc3      0xf42 libraries\HAL_Drivers\drv_usart.o
 .debug_loc     0x00022c05      0x3f8 libraries\HAL_Drivers\drv_common.o

.debug_macinfo
 *(.debug_macinfo)

.debug_weaknames
 *(.debug_weaknames)

.debug_funcnames
 *(.debug_funcnames)

.debug_typenames
 *(.debug_typenames)

.debug_varnames
 *(.debug_varnames)
OUTPUT(rt-thread.elf elf32-littlearm)
LOAD linker stubs

.debug_ranges   0x00000000     0x46b0
 .debug_ranges  0x00000000       0x10 build\applications\main.o
 .debug_ranges  0x00000010       0x18 build\board\ports\user_key.o
 .debug_ranges  0x00000028       0x20 libraries\STM32F1xx_HAL\CMSIS\Device\ST\STM32F1xx\Source\Templates\gcc\startup_stm32f103xb.o
 .debug_ranges  0x00000048      0x158 build\board\CubeMX_Config\Src\stm32f1xx_hal_msp.o
 .debug_ranges  0x000001a0       0x10 build\board\board.o
 .debug_ranges  0x000001b0       0x38 build\kernel\src\mem.o
 .debug_ranges  0x000001e8      0x390 build\kernel\src\timer.o
 .debug_ranges  0x00000578       0x30 build\kernel\src\irq.o
 .debug_ranges  0x000005a8       0x70 build\kernel\src\components.o
 .debug_ranges  0x00000618      0x1a0 build\kernel\src\thread.o
 .debug_ranges  0x000007b8       0x38 build\kernel\src\clock.o
 .debug_ranges  0x000007f0      0xe58 build\kernel\src\ipc.o
 .debug_ranges  0x00001648       0x70 build\kernel\src\device.o
 .debug_ranges  0x000016b8      0x150 build\kernel\src\scheduler.o
 .debug_ranges  0x00001808       0x70 build\kernel\src\idle.o
 .debug_ranges  0x00001878      0x1c8 build\kernel\src\object.o
 .debug_ranges  0x00001a40      0x300 build\kernel\src\kservice.o
 .debug_ranges  0x00001d40       0xb8 build\kernel\libcpu\arm\cortex-m3\cpuport.o
 .debug_ranges  0x00001df8      0x108 build\kernel\components\dfs\src\dfs_posix.o
 .debug_ranges  0x00001f00       0xa8 build\kernel\components\dfs\src\dfs_fs.o
 .debug_ranges  0x00001fa8      0x1f8 build\kernel\components\dfs\src\dfs.o
 .debug_ranges  0x000021a0      0x268 build\kernel\components\dfs\src\dfs_file.o
 .debug_ranges  0x00002408       0xc8 build\kernel\components\drivers\ipc\completion.o
 .debug_ranges  0x000024d0      0x190 build\kernel\components\drivers\ipc\dataqueue.o
 .debug_ranges  0x00002660      0x1e8 build\kernel\components\drivers\misc\pin.o
 .debug_ranges  0x00002848      0x430 build\kernel\components\drivers\serial\serial.o
 .debug_ranges  0x00002c78      0x1c0 build\kernel\components\finsh\shell.o
 .debug_ranges  0x00002e38      0x140 build\kernel\components\finsh\msh.o
 .debug_ranges  0x00002f78       0x50 build\kernel\components\finsh\msh_parse.o
 .debug_ranges  0x00002fc8      0x760 build\kernel\components\finsh\cmd.o
 .debug_ranges  0x00003728      0x1a0 build\kernel\components\finsh\msh_file.o
 .debug_ranges  0x000038c8      0x148 build\kernel\components\libc\compilers\common\cstring.o
 .debug_ranges  0x00003a10       0xf8 build\kernel\components\libc\compilers\newlib\syscalls.o
 .debug_ranges  0x00003b08       0x60 libraries\STM32F1xx_HAL\STM32F1xx_HAL_Driver\Src\stm32f1xx_hal_rcc_ex.o
 .debug_ranges  0x00003b68      0x180 libraries\STM32F1xx_HAL\STM32F1xx_HAL_Driver\Src\stm32f1xx_hal_cortex.o
 .debug_ranges  0x00003ce8      0x128 libraries\STM32F1xx_HAL\STM32F1xx_HAL_Driver\Src\stm32f1xx_hal_rcc.o
 .debug_ranges  0x00003e10       0xb8 libraries\STM32F1xx_HAL\STM32F1xx_HAL_Driver\Src\stm32f1xx_hal_dma.o
 .debug_ranges  0x00003ec8       0x18 libraries\STM32F1xx_HAL\CMSIS\Device\ST\STM32F1xx\Source\Templates\system_stm32f1xx.o
 .debug_ranges  0x00003ee0      0x2b8 libraries\STM32F1xx_HAL\STM32F1xx_HAL_Driver\Src\stm32f1xx_hal_uart.o
 .debug_ranges  0x00004198       0xc8 libraries\STM32F1xx_HAL\STM32F1xx_HAL_Driver\Src\stm32f1xx_hal.o
 .debug_ranges  0x00004260       0x70 libraries\STM32F1xx_HAL\STM32F1xx_HAL_Driver\Src\stm32f1xx_hal_gpio.o
 .debug_ranges  0x000042d0      0x138 libraries\HAL_Drivers\drv_gpio.o
 .debug_ranges  0x00004408      0x1b8 libraries\HAL_Drivers\drv_usart.o
 .debug_ranges  0x000045c0       0xf0 libraries\HAL_Drivers\drv_common.o

Cross Reference Table

Symbol                                            File
ADC1_2_IRQHandler                                 libraries\STM32F1xx_HAL\CMSIS\Device\ST\STM32F1xx\Source\Templates\gcc\startup_stm32f103xb.o
AHBPrescTable                                     libraries\STM32F1xx_HAL\CMSIS\Device\ST\STM32F1xx\Source\Templates\system_stm32f1xx.o
                                                  libraries\STM32F1xx_HAL\STM32F1xx_HAL_Driver\Src\stm32f1xx_hal_rcc.o
APBPrescTable                                     libraries\STM32F1xx_HAL\CMSIS\Device\ST\STM32F1xx\Source\Templates\system_stm32f1xx.o
                                                  libraries\STM32F1xx_HAL\STM32F1xx_HAL_Driver\Src\stm32f1xx_hal_rcc.o
BusFault_Handler                                  libraries\STM32F1xx_HAL\CMSIS\Device\ST\STM32F1xx\Source\Templates\gcc\startup_stm32f103xb.o
CAN1_RX1_IRQHandler                               libraries\STM32F1xx_HAL\CMSIS\Device\ST\STM32F1xx\Source\Templates\gcc\startup_stm32f103xb.o
CAN1_SCE_IRQHandler                               libraries\STM32F1xx_HAL\CMSIS\Device\ST\STM32F1xx\Source\Templates\gcc\startup_stm32f103xb.o
DMA1_Channel1_IRQHandler                          libraries\STM32F1xx_HAL\CMSIS\Device\ST\STM32F1xx\Source\Templates\gcc\startup_stm32f103xb.o
DMA1_Channel2_IRQHandler                          libraries\STM32F1xx_HAL\CMSIS\Device\ST\STM32F1xx\Source\Templates\gcc\startup_stm32f103xb.o
DMA1_Channel3_IRQHandler                          libraries\STM32F1xx_HAL\CMSIS\Device\ST\STM32F1xx\Source\Templates\gcc\startup_stm32f103xb.o
DMA1_Channel4_IRQHandler                          libraries\STM32F1xx_HAL\CMSIS\Device\ST\STM32F1xx\Source\Templates\gcc\startup_stm32f103xb.o
DMA1_Channel5_IRQHandler                          libraries\STM32F1xx_HAL\CMSIS\Device\ST\STM32F1xx\Source\Templates\gcc\startup_stm32f103xb.o
DMA1_Channel6_IRQHandler                          libraries\STM32F1xx_HAL\CMSIS\Device\ST\STM32F1xx\Source\Templates\gcc\startup_stm32f103xb.o
DMA1_Channel7_IRQHandler                          libraries\STM32F1xx_HAL\CMSIS\Device\ST\STM32F1xx\Source\Templates\gcc\startup_stm32f103xb.o
DebugMon_Handler                                  libraries\STM32F1xx_HAL\CMSIS\Device\ST\STM32F1xx\Source\Templates\gcc\startup_stm32f103xb.o
Default_Handler                                   libraries\STM32F1xx_HAL\CMSIS\Device\ST\STM32F1xx\Source\Templates\gcc\startup_stm32f103xb.o
EXTI0_IRQHandler                                  libraries\HAL_Drivers\drv_gpio.o
                                                  libraries\STM32F1xx_HAL\CMSIS\Device\ST\STM32F1xx\Source\Templates\gcc\startup_stm32f103xb.o
EXTI15_10_IRQHandler                              libraries\HAL_Drivers\drv_gpio.o
                                                  libraries\STM32F1xx_HAL\CMSIS\Device\ST\STM32F1xx\Source\Templates\gcc\startup_stm32f103xb.o
EXTI1_IRQHandler                                  libraries\HAL_Drivers\drv_gpio.o
                                                  libraries\STM32F1xx_HAL\CMSIS\Device\ST\STM32F1xx\Source\Templates\gcc\startup_stm32f103xb.o
EXTI2_IRQHandler                                  libraries\HAL_Drivers\drv_gpio.o
                                                  libraries\STM32F1xx_HAL\CMSIS\Device\ST\STM32F1xx\Source\Templates\gcc\startup_stm32f103xb.o
EXTI3_IRQHandler                                  libraries\HAL_Drivers\drv_gpio.o
                                                  libraries\STM32F1xx_HAL\CMSIS\Device\ST\STM32F1xx\Source\Templates\gcc\startup_stm32f103xb.o
EXTI4_IRQHandler                                  libraries\HAL_Drivers\drv_gpio.o
                                                  libraries\STM32F1xx_HAL\CMSIS\Device\ST\STM32F1xx\Source\Templates\gcc\startup_stm32f103xb.o
EXTI9_5_IRQHandler                                libraries\HAL_Drivers\drv_gpio.o
                                                  libraries\STM32F1xx_HAL\CMSIS\Device\ST\STM32F1xx\Source\Templates\gcc\startup_stm32f103xb.o
FLASH_IRQHandler                                  libraries\STM32F1xx_HAL\CMSIS\Device\ST\STM32F1xx\Source\Templates\gcc\startup_stm32f103xb.o
HAL_DBGMCU_DisableDBGSleepMode                    libraries\STM32F1xx_HAL\STM32F1xx_HAL_Driver\Src\stm32f1xx_hal.o
HAL_DBGMCU_DisableDBGStandbyMode                  libraries\STM32F1xx_HAL\STM32F1xx_HAL_Driver\Src\stm32f1xx_hal.o
HAL_DBGMCU_DisableDBGStopMode                     libraries\STM32F1xx_HAL\STM32F1xx_HAL_Driver\Src\stm32f1xx_hal.o
HAL_DBGMCU_EnableDBGSleepMode                     libraries\STM32F1xx_HAL\STM32F1xx_HAL_Driver\Src\stm32f1xx_hal.o
HAL_DBGMCU_EnableDBGStandbyMode                   libraries\STM32F1xx_HAL\STM32F1xx_HAL_Driver\Src\stm32f1xx_hal.o
HAL_DBGMCU_EnableDBGStopMode                      libraries\STM32F1xx_HAL\STM32F1xx_HAL_Driver\Src\stm32f1xx_hal.o
HAL_DMA_Abort                                     libraries\STM32F1xx_HAL\STM32F1xx_HAL_Driver\Src\stm32f1xx_hal_dma.o
                                                  libraries\HAL_Drivers\drv_usart.o
                                                  libraries\STM32F1xx_HAL\STM32F1xx_HAL_Driver\Src\stm32f1xx_hal_uart.o
HAL_DMA_Abort_IT                                  libraries\STM32F1xx_HAL\STM32F1xx_HAL_Driver\Src\stm32f1xx_hal_dma.o
                                                  libraries\STM32F1xx_HAL\STM32F1xx_HAL_Driver\Src\stm32f1xx_hal_uart.o
HAL_DMA_DeInit                                    libraries\STM32F1xx_HAL\STM32F1xx_HAL_Driver\Src\stm32f1xx_hal_dma.o
                                                  libraries\HAL_Drivers\drv_usart.o
HAL_DMA_GetError                                  libraries\STM32F1xx_HAL\STM32F1xx_HAL_Driver\Src\stm32f1xx_hal_dma.o
                                                  libraries\STM32F1xx_HAL\STM32F1xx_HAL_Driver\Src\stm32f1xx_hal_uart.o
HAL_DMA_GetState                                  libraries\STM32F1xx_HAL\STM32F1xx_HAL_Driver\Src\stm32f1xx_hal_dma.o
HAL_DMA_IRQHandler                                libraries\STM32F1xx_HAL\STM32F1xx_HAL_Driver\Src\stm32f1xx_hal_dma.o
HAL_DMA_Init                                      libraries\STM32F1xx_HAL\STM32F1xx_HAL_Driver\Src\stm32f1xx_hal_dma.o
                                                  libraries\HAL_Drivers\drv_usart.o
HAL_DMA_PollForTransfer                           libraries\STM32F1xx_HAL\STM32F1xx_HAL_Driver\Src\stm32f1xx_hal_dma.o
HAL_DMA_RegisterCallback                          libraries\STM32F1xx_HAL\STM32F1xx_HAL_Driver\Src\stm32f1xx_hal_dma.o
HAL_DMA_Start                                     libraries\STM32F1xx_HAL\STM32F1xx_HAL_Driver\Src\stm32f1xx_hal_dma.o
HAL_DMA_Start_IT                                  libraries\STM32F1xx_HAL\STM32F1xx_HAL_Driver\Src\stm32f1xx_hal_dma.o
                                                  libraries\STM32F1xx_HAL\STM32F1xx_HAL_Driver\Src\stm32f1xx_hal_uart.o
HAL_DMA_UnRegisterCallback                        libraries\STM32F1xx_HAL\STM32F1xx_HAL_Driver\Src\stm32f1xx_hal_dma.o
HAL_DeInit                                        libraries\STM32F1xx_HAL\STM32F1xx_HAL_Driver\Src\stm32f1xx_hal.o
HAL_Delay                                         libraries\HAL_Drivers\drv_common.o
                                                  libraries\STM32F1xx_HAL\STM32F1xx_HAL_Driver\Src\stm32f1xx_hal.o
HAL_GPIOEx_ConfigEventout                         libraries\STM32F1xx_HAL\STM32F1xx_HAL_Driver\Src\stm32f1xx_hal_gpio_ex.o
HAL_GPIOEx_DisableEventout                        libraries\STM32F1xx_HAL\STM32F1xx_HAL_Driver\Src\stm32f1xx_hal_gpio_ex.o
HAL_GPIOEx_EnableEventout                         libraries\STM32F1xx_HAL\STM32F1xx_HAL_Driver\Src\stm32f1xx_hal_gpio_ex.o
HAL_GPIO_DeInit                                   libraries\STM32F1xx_HAL\STM32F1xx_HAL_Driver\Src\stm32f1xx_hal_gpio.o
                                                  libraries\HAL_Drivers\drv_gpio.o
                                                  build\board\CubeMX_Config\Src\stm32f1xx_hal_msp.o
HAL_GPIO_EXTI_Callback                            libraries\HAL_Drivers\drv_gpio.o
                                                  libraries\STM32F1xx_HAL\STM32F1xx_HAL_Driver\Src\stm32f1xx_hal_gpio.o
HAL_GPIO_EXTI_IRQHandler                          libraries\STM32F1xx_HAL\STM32F1xx_HAL_Driver\Src\stm32f1xx_hal_gpio.o
                                                  libraries\HAL_Drivers\drv_gpio.o
HAL_GPIO_Init                                     libraries\STM32F1xx_HAL\STM32F1xx_HAL_Driver\Src\stm32f1xx_hal_gpio.o
                                                  libraries\HAL_Drivers\drv_gpio.o
                                                  libraries\STM32F1xx_HAL\STM32F1xx_HAL_Driver\Src\stm32f1xx_hal_rcc.o
                                                  build\board\CubeMX_Config\Src\stm32f1xx_hal_msp.o
HAL_GPIO_LockPin                                  libraries\STM32F1xx_HAL\STM32F1xx_HAL_Driver\Src\stm32f1xx_hal_gpio.o
HAL_GPIO_ReadPin                                  libraries\STM32F1xx_HAL\STM32F1xx_HAL_Driver\Src\stm32f1xx_hal_gpio.o
                                                  libraries\HAL_Drivers\drv_gpio.o
HAL_GPIO_TogglePin                                libraries\STM32F1xx_HAL\STM32F1xx_HAL_Driver\Src\stm32f1xx_hal_gpio.o
HAL_GPIO_WritePin                                 libraries\STM32F1xx_HAL\STM32F1xx_HAL_Driver\Src\stm32f1xx_hal_gpio.o
                                                  libraries\HAL_Drivers\drv_gpio.o
HAL_GetDEVID                                      libraries\STM32F1xx_HAL\STM32F1xx_HAL_Driver\Src\stm32f1xx_hal.o
HAL_GetHalVersion                                 libraries\STM32F1xx_HAL\STM32F1xx_HAL_Driver\Src\stm32f1xx_hal.o
HAL_GetREVID                                      libraries\STM32F1xx_HAL\STM32F1xx_HAL_Driver\Src\stm32f1xx_hal.o
HAL_GetTick                                       libraries\HAL_Drivers\drv_common.o
                                                  libraries\STM32F1xx_HAL\STM32F1xx_HAL_Driver\Src\stm32f1xx_hal.o
                                                  libraries\STM32F1xx_HAL\STM32F1xx_HAL_Driver\Src\stm32f1xx_hal_uart.o
                                                  libraries\STM32F1xx_HAL\STM32F1xx_HAL_Driver\Src\stm32f1xx_hal_dma.o
                                                  libraries\STM32F1xx_HAL\STM32F1xx_HAL_Driver\Src\stm32f1xx_hal_rcc.o
                                                  libraries\STM32F1xx_HAL\STM32F1xx_HAL_Driver\Src\stm32f1xx_hal_rcc_ex.o
HAL_GetTickFreq                                   libraries\STM32F1xx_HAL\STM32F1xx_HAL_Driver\Src\stm32f1xx_hal.o
HAL_GetTickPrio                                   libraries\STM32F1xx_HAL\STM32F1xx_HAL_Driver\Src\stm32f1xx_hal.o
HAL_GetUIDw0                                      libraries\STM32F1xx_HAL\STM32F1xx_HAL_Driver\Src\stm32f1xx_hal.o
HAL_GetUIDw1                                      libraries\STM32F1xx_HAL\STM32F1xx_HAL_Driver\Src\stm32f1xx_hal.o
HAL_GetUIDw2                                      libraries\STM32F1xx_HAL\STM32F1xx_HAL_Driver\Src\stm32f1xx_hal.o
HAL_HalfDuplex_EnableReceiver                     libraries\STM32F1xx_HAL\STM32F1xx_HAL_Driver\Src\stm32f1xx_hal_uart.o
HAL_HalfDuplex_EnableTransmitter                  libraries\STM32F1xx_HAL\STM32F1xx_HAL_Driver\Src\stm32f1xx_hal_uart.o
HAL_HalfDuplex_Init                               libraries\STM32F1xx_HAL\STM32F1xx_HAL_Driver\Src\stm32f1xx_hal_uart.o
HAL_IncTick                                       libraries\HAL_Drivers\drv_common.o
                                                  libraries\STM32F1xx_HAL\STM32F1xx_HAL_Driver\Src\stm32f1xx_hal.o
HAL_Init                                          libraries\STM32F1xx_HAL\STM32F1xx_HAL_Driver\Src\stm32f1xx_hal.o
                                                  libraries\HAL_Drivers\drv_common.o
HAL_InitTick                                      libraries\HAL_Drivers\drv_common.o
                                                  libraries\STM32F1xx_HAL\STM32F1xx_HAL_Driver\Src\stm32f1xx_hal.o
                                                  libraries\STM32F1xx_HAL\STM32F1xx_HAL_Driver\Src\stm32f1xx_hal_rcc.o
HAL_LIN_Init                                      libraries\STM32F1xx_HAL\STM32F1xx_HAL_Driver\Src\stm32f1xx_hal_uart.o
HAL_LIN_SendBreak                                 libraries\STM32F1xx_HAL\STM32F1xx_HAL_Driver\Src\stm32f1xx_hal_uart.o
HAL_MspDeInit                                     libraries\STM32F1xx_HAL\STM32F1xx_HAL_Driver\Src\stm32f1xx_hal.o
HAL_MspInit                                       build\board\CubeMX_Config\Src\stm32f1xx_hal_msp.o
HAL_MultiProcessor_EnterMuteMode                  libraries\STM32F1xx_HAL\STM32F1xx_HAL_Driver\Src\stm32f1xx_hal_uart.o
HAL_MultiProcessor_ExitMuteMode                   libraries\STM32F1xx_HAL\STM32F1xx_HAL_Driver\Src\stm32f1xx_hal_uart.o
HAL_MultiProcessor_Init                           libraries\STM32F1xx_HAL\STM32F1xx_HAL_Driver\Src\stm32f1xx_hal_uart.o
HAL_NVIC_ClearPendingIRQ                          libraries\STM32F1xx_HAL\STM32F1xx_HAL_Driver\Src\stm32f1xx_hal_cortex.o
HAL_NVIC_DisableIRQ                               libraries\STM32F1xx_HAL\STM32F1xx_HAL_Driver\Src\stm32f1xx_hal_cortex.o
                                                  libraries\HAL_Drivers\drv_usart.o
                                                  libraries\HAL_Drivers\drv_gpio.o
HAL_NVIC_EnableIRQ                                libraries\STM32F1xx_HAL\STM32F1xx_HAL_Driver\Src\stm32f1xx_hal_cortex.o
                                                  libraries\HAL_Drivers\drv_usart.o
                                                  libraries\HAL_Drivers\drv_gpio.o
HAL_NVIC_GetActive                                libraries\STM32F1xx_HAL\STM32F1xx_HAL_Driver\Src\stm32f1xx_hal_cortex.o
HAL_NVIC_GetPendingIRQ                            libraries\STM32F1xx_HAL\STM32F1xx_HAL_Driver\Src\stm32f1xx_hal_cortex.o
HAL_NVIC_GetPriority                              libraries\STM32F1xx_HAL\STM32F1xx_HAL_Driver\Src\stm32f1xx_hal_cortex.o
HAL_NVIC_GetPriorityGrouping                      libraries\STM32F1xx_HAL\STM32F1xx_HAL_Driver\Src\stm32f1xx_hal_cortex.o
HAL_NVIC_SetPendingIRQ                            libraries\STM32F1xx_HAL\STM32F1xx_HAL_Driver\Src\stm32f1xx_hal_cortex.o
HAL_NVIC_SetPriority                              libraries\STM32F1xx_HAL\STM32F1xx_HAL_Driver\Src\stm32f1xx_hal_cortex.o
                                                  libraries\HAL_Drivers\drv_usart.o
                                                  libraries\HAL_Drivers\drv_gpio.o
                                                  libraries\STM32F1xx_HAL\STM32F1xx_HAL_Driver\Src\stm32f1xx_hal.o
HAL_NVIC_SetPriorityGrouping                      libraries\STM32F1xx_HAL\STM32F1xx_HAL_Driver\Src\stm32f1xx_hal_cortex.o
                                                  libraries\STM32F1xx_HAL\STM32F1xx_HAL_Driver\Src\stm32f1xx_hal.o
HAL_NVIC_SystemReset                              libraries\STM32F1xx_HAL\STM32F1xx_HAL_Driver\Src\stm32f1xx_hal_cortex.o
HAL_PWR_ConfigPVD                                 libraries\STM32F1xx_HAL\STM32F1xx_HAL_Driver\Src\stm32f1xx_hal_pwr.o
HAL_PWR_DeInit                                    libraries\STM32F1xx_HAL\STM32F1xx_HAL_Driver\Src\stm32f1xx_hal_pwr.o
HAL_PWR_DisableBkUpAccess                         libraries\STM32F1xx_HAL\STM32F1xx_HAL_Driver\Src\stm32f1xx_hal_pwr.o
HAL_PWR_DisablePVD                                libraries\STM32F1xx_HAL\STM32F1xx_HAL_Driver\Src\stm32f1xx_hal_pwr.o
HAL_PWR_DisableSEVOnPend                          libraries\STM32F1xx_HAL\STM32F1xx_HAL_Driver\Src\stm32f1xx_hal_pwr.o
HAL_PWR_DisableSleepOnExit                        libraries\STM32F1xx_HAL\STM32F1xx_HAL_Driver\Src\stm32f1xx_hal_pwr.o
HAL_PWR_DisableWakeUpPin                          libraries\STM32F1xx_HAL\STM32F1xx_HAL_Driver\Src\stm32f1xx_hal_pwr.o
HAL_PWR_EnableBkUpAccess                          libraries\STM32F1xx_HAL\STM32F1xx_HAL_Driver\Src\stm32f1xx_hal_pwr.o
                                                  build\board\CubeMX_Config\Src\stm32f1xx_hal_msp.o
HAL_PWR_EnablePVD                                 libraries\STM32F1xx_HAL\STM32F1xx_HAL_Driver\Src\stm32f1xx_hal_pwr.o
HAL_PWR_EnableSEVOnPend                           libraries\STM32F1xx_HAL\STM32F1xx_HAL_Driver\Src\stm32f1xx_hal_pwr.o
HAL_PWR_EnableSleepOnExit                         libraries\STM32F1xx_HAL\STM32F1xx_HAL_Driver\Src\stm32f1xx_hal_pwr.o
HAL_PWR_EnableWakeUpPin                           libraries\STM32F1xx_HAL\STM32F1xx_HAL_Driver\Src\stm32f1xx_hal_pwr.o
HAL_PWR_EnterSLEEPMode                            libraries\STM32F1xx_HAL\STM32F1xx_HAL_Driver\Src\stm32f1xx_hal_pwr.o
HAL_PWR_EnterSTANDBYMode                          libraries\STM32F1xx_HAL\STM32F1xx_HAL_Driver\Src\stm32f1xx_hal_pwr.o
HAL_PWR_EnterSTOPMode                             libraries\STM32F1xx_HAL\STM32F1xx_HAL_Driver\Src\stm32f1xx_hal_pwr.o
HAL_PWR_PVDCallback                               libraries\STM32F1xx_HAL\STM32F1xx_HAL_Driver\Src\stm32f1xx_hal_pwr.o
HAL_PWR_PVD_IRQHandler                            libraries\STM32F1xx_HAL\STM32F1xx_HAL_Driver\Src\stm32f1xx_hal_pwr.o
HAL_RCCEx_GetPeriphCLKConfig                      libraries\STM32F1xx_HAL\STM32F1xx_HAL_Driver\Src\stm32f1xx_hal_rcc_ex.o
HAL_RCCEx_GetPeriphCLKFreq                        libraries\STM32F1xx_HAL\STM32F1xx_HAL_Driver\Src\stm32f1xx_hal_rcc_ex.o
HAL_RCCEx_PeriphCLKConfig                         libraries\STM32F1xx_HAL\STM32F1xx_HAL_Driver\Src\stm32f1xx_hal_rcc_ex.o
                                                  build\board\board.o
HAL_RCC_CSSCallback                               libraries\STM32F1xx_HAL\STM32F1xx_HAL_Driver\Src\stm32f1xx_hal_rcc.o
HAL_RCC_ClockConfig                               libraries\STM32F1xx_HAL\STM32F1xx_HAL_Driver\Src\stm32f1xx_hal_rcc.o
                                                  build\board\board.o
HAL_RCC_DeInit                                    libraries\STM32F1xx_HAL\STM32F1xx_HAL_Driver\Src\stm32f1xx_hal_rcc.o
HAL_RCC_DisableCSS                                libraries\STM32F1xx_HAL\STM32F1xx_HAL_Driver\Src\stm32f1xx_hal_rcc.o
HAL_RCC_EnableCSS                                 libraries\STM32F1xx_HAL\STM32F1xx_HAL_Driver\Src\stm32f1xx_hal_rcc.o
HAL_RCC_GetClockConfig                            libraries\STM32F1xx_HAL\STM32F1xx_HAL_Driver\Src\stm32f1xx_hal_rcc.o
HAL_RCC_GetHCLKFreq                               libraries\STM32F1xx_HAL\STM32F1xx_HAL_Driver\Src\stm32f1xx_hal_rcc.o
HAL_RCC_GetOscConfig                              libraries\STM32F1xx_HAL\STM32F1xx_HAL_Driver\Src\stm32f1xx_hal_rcc.o
HAL_RCC_GetPCLK1Freq                              libraries\STM32F1xx_HAL\STM32F1xx_HAL_Driver\Src\stm32f1xx_hal_rcc.o
                                                  libraries\STM32F1xx_HAL\STM32F1xx_HAL_Driver\Src\stm32f1xx_hal_uart.o
HAL_RCC_GetPCLK2Freq                              libraries\STM32F1xx_HAL\STM32F1xx_HAL_Driver\Src\stm32f1xx_hal_rcc.o
                                                  libraries\STM32F1xx_HAL\STM32F1xx_HAL_Driver\Src\stm32f1xx_hal_uart.o
                                                  libraries\STM32F1xx_HAL\STM32F1xx_HAL_Driver\Src\stm32f1xx_hal_rcc_ex.o
HAL_RCC_GetSysClockFreq                           libraries\STM32F1xx_HAL\STM32F1xx_HAL_Driver\Src\stm32f1xx_hal_rcc.o
HAL_RCC_MCOConfig                                 libraries\STM32F1xx_HAL\STM32F1xx_HAL_Driver\Src\stm32f1xx_hal_rcc.o
HAL_RCC_NMI_IRQHandler                            libraries\STM32F1xx_HAL\STM32F1xx_HAL_Driver\Src\stm32f1xx_hal_rcc.o
HAL_RCC_OscConfig                                 libraries\STM32F1xx_HAL\STM32F1xx_HAL_Driver\Src\stm32f1xx_hal_rcc.o
                                                  build\board\board.o
HAL_RTC_MspDeInit                                 build\board\CubeMX_Config\Src\stm32f1xx_hal_msp.o
HAL_RTC_MspInit                                   build\board\CubeMX_Config\Src\stm32f1xx_hal_msp.o
HAL_ResumeTick                                    libraries\HAL_Drivers\drv_common.o
                                                  libraries\STM32F1xx_HAL\STM32F1xx_HAL_Driver\Src\stm32f1xx_hal.o
HAL_SPI_MspDeInit                                 build\board\CubeMX_Config\Src\stm32f1xx_hal_msp.o
HAL_SPI_MspInit                                   build\board\CubeMX_Config\Src\stm32f1xx_hal_msp.o
HAL_SYSTICK_CLKSourceConfig                       libraries\STM32F1xx_HAL\STM32F1xx_HAL_Driver\Src\stm32f1xx_hal_cortex.o
HAL_SYSTICK_Callback                              libraries\STM32F1xx_HAL\STM32F1xx_HAL_Driver\Src\stm32f1xx_hal_cortex.o
HAL_SYSTICK_Config                                libraries\STM32F1xx_HAL\STM32F1xx_HAL_Driver\Src\stm32f1xx_hal_cortex.o
                                                  libraries\HAL_Drivers\drv_common.o
                                                  libraries\STM32F1xx_HAL\STM32F1xx_HAL_Driver\Src\stm32f1xx_hal.o
HAL_SYSTICK_IRQHandler                            libraries\STM32F1xx_HAL\STM32F1xx_HAL_Driver\Src\stm32f1xx_hal_cortex.o
HAL_SetTickFreq                                   libraries\STM32F1xx_HAL\STM32F1xx_HAL_Driver\Src\stm32f1xx_hal.o
HAL_SuspendTick                                   libraries\HAL_Drivers\drv_common.o
                                                  libraries\STM32F1xx_HAL\STM32F1xx_HAL_Driver\Src\stm32f1xx_hal.o
HAL_UARTEx_ReceiveToIdle                          libraries\STM32F1xx_HAL\STM32F1xx_HAL_Driver\Src\stm32f1xx_hal_uart.o
HAL_UARTEx_ReceiveToIdle_DMA                      libraries\STM32F1xx_HAL\STM32F1xx_HAL_Driver\Src\stm32f1xx_hal_uart.o
HAL_UARTEx_ReceiveToIdle_IT                       libraries\STM32F1xx_HAL\STM32F1xx_HAL_Driver\Src\stm32f1xx_hal_uart.o
HAL_UARTEx_RxEventCallback                        libraries\STM32F1xx_HAL\STM32F1xx_HAL_Driver\Src\stm32f1xx_hal_uart.o
HAL_UART_Abort                                    libraries\STM32F1xx_HAL\STM32F1xx_HAL_Driver\Src\stm32f1xx_hal_uart.o
HAL_UART_AbortCpltCallback                        libraries\STM32F1xx_HAL\STM32F1xx_HAL_Driver\Src\stm32f1xx_hal_uart.o
HAL_UART_AbortReceive                             libraries\STM32F1xx_HAL\STM32F1xx_HAL_Driver\Src\stm32f1xx_hal_uart.o
HAL_UART_AbortReceiveCpltCallback                 libraries\STM32F1xx_HAL\STM32F1xx_HAL_Driver\Src\stm32f1xx_hal_uart.o
HAL_UART_AbortReceive_IT                          libraries\STM32F1xx_HAL\STM32F1xx_HAL_Driver\Src\stm32f1xx_hal_uart.o
HAL_UART_AbortTransmit                            libraries\STM32F1xx_HAL\STM32F1xx_HAL_Driver\Src\stm32f1xx_hal_uart.o
HAL_UART_AbortTransmitCpltCallback                libraries\STM32F1xx_HAL\STM32F1xx_HAL_Driver\Src\stm32f1xx_hal_uart.o
HAL_UART_AbortTransmit_IT                         libraries\STM32F1xx_HAL\STM32F1xx_HAL_Driver\Src\stm32f1xx_hal_uart.o
HAL_UART_Abort_IT                                 libraries\STM32F1xx_HAL\STM32F1xx_HAL_Driver\Src\stm32f1xx_hal_uart.o
HAL_UART_DMAPause                                 libraries\STM32F1xx_HAL\STM32F1xx_HAL_Driver\Src\stm32f1xx_hal_uart.o
HAL_UART_DMAResume                                libraries\STM32F1xx_HAL\STM32F1xx_HAL_Driver\Src\stm32f1xx_hal_uart.o
HAL_UART_DMAStop                                  libraries\STM32F1xx_HAL\STM32F1xx_HAL_Driver\Src\stm32f1xx_hal_uart.o
HAL_UART_DeInit                                   libraries\STM32F1xx_HAL\STM32F1xx_HAL_Driver\Src\stm32f1xx_hal_uart.o
                                                  libraries\HAL_Drivers\drv_usart.o
HAL_UART_ErrorCallback                            libraries\HAL_Drivers\drv_usart.o
                                                  libraries\STM32F1xx_HAL\STM32F1xx_HAL_Driver\Src\stm32f1xx_hal_uart.o
HAL_UART_GetError                                 libraries\STM32F1xx_HAL\STM32F1xx_HAL_Driver\Src\stm32f1xx_hal_uart.o
HAL_UART_GetState                                 libraries\STM32F1xx_HAL\STM32F1xx_HAL_Driver\Src\stm32f1xx_hal_uart.o
HAL_UART_IRQHandler                               libraries\STM32F1xx_HAL\STM32F1xx_HAL_Driver\Src\stm32f1xx_hal_uart.o
                                                  libraries\HAL_Drivers\drv_usart.o
HAL_UART_Init                                     libraries\STM32F1xx_HAL\STM32F1xx_HAL_Driver\Src\stm32f1xx_hal_uart.o
                                                  libraries\HAL_Drivers\drv_usart.o
HAL_UART_MspDeInit                                build\board\CubeMX_Config\Src\stm32f1xx_hal_msp.o
HAL_UART_MspInit                                  build\board\CubeMX_Config\Src\stm32f1xx_hal_msp.o
HAL_UART_Receive                                  libraries\STM32F1xx_HAL\STM32F1xx_HAL_Driver\Src\stm32f1xx_hal_uart.o
HAL_UART_Receive_DMA                              libraries\STM32F1xx_HAL\STM32F1xx_HAL_Driver\Src\stm32f1xx_hal_uart.o
                                                  libraries\HAL_Drivers\drv_usart.o
HAL_UART_Receive_IT                               libraries\STM32F1xx_HAL\STM32F1xx_HAL_Driver\Src\stm32f1xx_hal_uart.o
HAL_UART_RxCpltCallback                           libraries\HAL_Drivers\drv_usart.o
                                                  libraries\STM32F1xx_HAL\STM32F1xx_HAL_Driver\Src\stm32f1xx_hal_uart.o
HAL_UART_RxHalfCpltCallback                       libraries\HAL_Drivers\drv_usart.o
                                                  libraries\STM32F1xx_HAL\STM32F1xx_HAL_Driver\Src\stm32f1xx_hal_uart.o
HAL_UART_Transmit                                 libraries\STM32F1xx_HAL\STM32F1xx_HAL_Driver\Src\stm32f1xx_hal_uart.o
HAL_UART_Transmit_DMA                             libraries\STM32F1xx_HAL\STM32F1xx_HAL_Driver\Src\stm32f1xx_hal_uart.o
                                                  libraries\HAL_Drivers\drv_usart.o
HAL_UART_Transmit_IT                              libraries\STM32F1xx_HAL\STM32F1xx_HAL_Driver\Src\stm32f1xx_hal_uart.o
HAL_UART_TxCpltCallback                           libraries\HAL_Drivers\drv_usart.o
                                                  libraries\STM32F1xx_HAL\STM32F1xx_HAL_Driver\Src\stm32f1xx_hal_uart.o
HAL_UART_TxHalfCpltCallback                       libraries\STM32F1xx_HAL\STM32F1xx_HAL_Driver\Src\stm32f1xx_hal_uart.o
HardFault_Handler                                 build\kernel\libcpu\arm\cortex-m3\context_gcc.o
                                                  libraries\STM32F1xx_HAL\CMSIS\Device\ST\STM32F1xx\Source\Templates\gcc\startup_stm32f103xb.o
I2C1_ER_IRQHandler                                libraries\STM32F1xx_HAL\CMSIS\Device\ST\STM32F1xx\Source\Templates\gcc\startup_stm32f103xb.o
I2C1_EV_IRQHandler                                libraries\STM32F1xx_HAL\CMSIS\Device\ST\STM32F1xx\Source\Templates\gcc\startup_stm32f103xb.o
I2C2_ER_IRQHandler                                libraries\STM32F1xx_HAL\CMSIS\Device\ST\STM32F1xx\Source\Templates\gcc\startup_stm32f103xb.o
I2C2_EV_IRQHandler                                libraries\STM32F1xx_HAL\CMSIS\Device\ST\STM32F1xx\Source\Templates\gcc\startup_stm32f103xb.o
MemManage_Handler                                 libraries\STM32F1xx_HAL\CMSIS\Device\ST\STM32F1xx\Source\Templates\gcc\startup_stm32f103xb.o
NMI_Handler                                       libraries\STM32F1xx_HAL\CMSIS\Device\ST\STM32F1xx\Source\Templates\gcc\startup_stm32f103xb.o
PVD_IRQHandler                                    libraries\STM32F1xx_HAL\CMSIS\Device\ST\STM32F1xx\Source\Templates\gcc\startup_stm32f103xb.o
PendSV_Handler                                    build\kernel\libcpu\arm\cortex-m3\context_gcc.o
                                                  libraries\STM32F1xx_HAL\CMSIS\Device\ST\STM32F1xx\Source\Templates\gcc\startup_stm32f103xb.o
RCC_IRQHandler                                    libraries\STM32F1xx_HAL\CMSIS\Device\ST\STM32F1xx\Source\Templates\gcc\startup_stm32f103xb.o
RTC_Alarm_IRQHandler                              libraries\STM32F1xx_HAL\CMSIS\Device\ST\STM32F1xx\Source\Templates\gcc\startup_stm32f103xb.o
RTC_IRQHandler                                    libraries\STM32F1xx_HAL\CMSIS\Device\ST\STM32F1xx\Source\Templates\gcc\startup_stm32f103xb.o
Reset_Handler                                     libraries\STM32F1xx_HAL\CMSIS\Device\ST\STM32F1xx\Source\Templates\gcc\startup_stm32f103xb.o
SPI1_IRQHandler                                   libraries\STM32F1xx_HAL\CMSIS\Device\ST\STM32F1xx\Source\Templates\gcc\startup_stm32f103xb.o
SPI2_IRQHandler                                   libraries\STM32F1xx_HAL\CMSIS\Device\ST\STM32F1xx\Source\Templates\gcc\startup_stm32f103xb.o
SVC_Handler                                       libraries\STM32F1xx_HAL\CMSIS\Device\ST\STM32F1xx\Source\Templates\gcc\startup_stm32f103xb.o
SysTick_Handler                                   libraries\HAL_Drivers\drv_common.o
                                                  libraries\STM32F1xx_HAL\CMSIS\Device\ST\STM32F1xx\Source\Templates\gcc\startup_stm32f103xb.o
SystemClock_Config                                build\board\board.o
                                                  libraries\HAL_Drivers\drv_common.o
SystemCoreClock                                   libraries\STM32F1xx_HAL\CMSIS\Device\ST\STM32F1xx\Source\Templates\system_stm32f1xx.o
                                                  libraries\HAL_Drivers\drv_common.o
                                                  libraries\STM32F1xx_HAL\STM32F1xx_HAL_Driver\Src\stm32f1xx_hal.o
                                                  libraries\STM32F1xx_HAL\STM32F1xx_HAL_Driver\Src\stm32f1xx_hal_rcc.o
SystemCoreClockUpdate                             libraries\STM32F1xx_HAL\CMSIS\Device\ST\STM32F1xx\Source\Templates\system_stm32f1xx.o
SystemInit                                        libraries\STM32F1xx_HAL\CMSIS\Device\ST\STM32F1xx\Source\Templates\system_stm32f1xx.o
                                                  libraries\STM32F1xx_HAL\CMSIS\Device\ST\STM32F1xx\Source\Templates\gcc\startup_stm32f103xb.o
TAMPER_IRQHandler                                 libraries\STM32F1xx_HAL\CMSIS\Device\ST\STM32F1xx\Source\Templates\gcc\startup_stm32f103xb.o
TIM1_BRK_IRQHandler                               libraries\STM32F1xx_HAL\CMSIS\Device\ST\STM32F1xx\Source\Templates\gcc\startup_stm32f103xb.o
TIM1_CC_IRQHandler                                libraries\STM32F1xx_HAL\CMSIS\Device\ST\STM32F1xx\Source\Templates\gcc\startup_stm32f103xb.o
TIM1_TRG_COM_IRQHandler                           libraries\STM32F1xx_HAL\CMSIS\Device\ST\STM32F1xx\Source\Templates\gcc\startup_stm32f103xb.o
TIM1_UP_IRQHandler                                libraries\STM32F1xx_HAL\CMSIS\Device\ST\STM32F1xx\Source\Templates\gcc\startup_stm32f103xb.o
TIM2_IRQHandler                                   libraries\STM32F1xx_HAL\CMSIS\Device\ST\STM32F1xx\Source\Templates\gcc\startup_stm32f103xb.o
TIM3_IRQHandler                                   libraries\STM32F1xx_HAL\CMSIS\Device\ST\STM32F1xx\Source\Templates\gcc\startup_stm32f103xb.o
TIM4_IRQHandler                                   libraries\STM32F1xx_HAL\CMSIS\Device\ST\STM32F1xx\Source\Templates\gcc\startup_stm32f103xb.o
UART_Start_Receive_DMA                            libraries\STM32F1xx_HAL\STM32F1xx_HAL_Driver\Src\stm32f1xx_hal_uart.o
UART_Start_Receive_IT                             libraries\STM32F1xx_HAL\STM32F1xx_HAL_Driver\Src\stm32f1xx_hal_uart.o
USART1_IRQHandler                                 libraries\HAL_Drivers\drv_usart.o
                                                  libraries\STM32F1xx_HAL\CMSIS\Device\ST\STM32F1xx\Source\Templates\gcc\startup_stm32f103xb.o
USART2_IRQHandler                                 libraries\STM32F1xx_HAL\CMSIS\Device\ST\STM32F1xx\Source\Templates\gcc\startup_stm32f103xb.o
USART3_IRQHandler                                 libraries\STM32F1xx_HAL\CMSIS\Device\ST\STM32F1xx\Source\Templates\gcc\startup_stm32f103xb.o
USBWakeUp_IRQHandler                              libraries\STM32F1xx_HAL\CMSIS\Device\ST\STM32F1xx\Source\Templates\gcc\startup_stm32f103xb.o
USB_HP_CAN1_TX_IRQHandler                         libraries\STM32F1xx_HAL\CMSIS\Device\ST\STM32F1xx\Source\Templates\gcc\startup_stm32f103xb.o
USB_LP_CAN1_RX0_IRQHandler                        libraries\STM32F1xx_HAL\CMSIS\Device\ST\STM32F1xx\Source\Templates\gcc\startup_stm32f103xb.o
UsageFault_Handler                                libraries\STM32F1xx_HAL\CMSIS\Device\ST\STM32F1xx\Source\Templates\gcc\startup_stm32f103xb.o
WWDG_IRQHandler                                   libraries\STM32F1xx_HAL\CMSIS\Device\ST\STM32F1xx\Source\Templates\gcc\startup_stm32f103xb.o
_Error_Handler                                    libraries\HAL_Drivers\drv_common.o
                                                  build\board\board.o
__adddf3                                          g:/rt-threadstudio/platform/env_released/env/tools/gnu_gcc/arm_gcc/mingw/bin/../lib/gcc/arm-none-eabi/10.3.1/thumb/v7-m/nofp\libgcc.a(_arm_addsubdf3.o)
__aeabi_dadd                                      g:/rt-threadstudio/platform/env_released/env/tools/gnu_gcc/arm_gcc/mingw/bin/../lib/gcc/arm-none-eabi/10.3.1/thumb/v7-m/nofp\libgcc.a(_arm_addsubdf3.o)
__aeabi_drsub                                     g:/rt-threadstudio/platform/env_released/env/tools/gnu_gcc/arm_gcc/mingw/bin/../lib/gcc/arm-none-eabi/10.3.1/thumb/v7-m/nofp\libgcc.a(_arm_addsubdf3.o)
__aeabi_dsub                                      g:/rt-threadstudio/platform/env_released/env/tools/gnu_gcc/arm_gcc/mingw/bin/../lib/gcc/arm-none-eabi/10.3.1/thumb/v7-m/nofp\libgcc.a(_arm_addsubdf3.o)
__aeabi_f2d                                       g:/rt-threadstudio/platform/env_released/env/tools/gnu_gcc/arm_gcc/mingw/bin/../lib/gcc/arm-none-eabi/10.3.1/thumb/v7-m/nofp\libgcc.a(_arm_addsubdf3.o)
__aeabi_i2d                                       g:/rt-threadstudio/platform/env_released/env/tools/gnu_gcc/arm_gcc/mingw/bin/../lib/gcc/arm-none-eabi/10.3.1/thumb/v7-m/nofp\libgcc.a(_arm_addsubdf3.o)
__aeabi_idiv0                                     g:/rt-threadstudio/platform/env_released/env/tools/gnu_gcc/arm_gcc/mingw/bin/../lib/gcc/arm-none-eabi/10.3.1/thumb/v7-m/nofp\libgcc.a(_dvmd_tls.o)
__aeabi_l2d                                       g:/rt-threadstudio/platform/env_released/env/tools/gnu_gcc/arm_gcc/mingw/bin/../lib/gcc/arm-none-eabi/10.3.1/thumb/v7-m/nofp\libgcc.a(_arm_addsubdf3.o)
                                                  build\kernel\components\libc\compilers\common\ctime.o
__aeabi_ldiv0                                     g:/rt-threadstudio/platform/env_released/env/tools/gnu_gcc/arm_gcc/mingw/bin/../lib/gcc/arm-none-eabi/10.3.1/thumb/v7-m/nofp\libgcc.a(_dvmd_tls.o)
                                                  g:/rt-threadstudio/platform/env_released/env/tools/gnu_gcc/arm_gcc/mingw/bin/../lib/gcc/arm-none-eabi/10.3.1/thumb/v7-m/nofp\libgcc.a(_aeabi_ldivmod.o)
__aeabi_ldivmod                                   g:/rt-threadstudio/platform/env_released/env/tools/gnu_gcc/arm_gcc/mingw/bin/../lib/gcc/arm-none-eabi/10.3.1/thumb/v7-m/nofp\libgcc.a(_aeabi_ldivmod.o)
                                                  build\kernel\components\libc\compilers\common\ctime.o
__aeabi_ui2d                                      g:/rt-threadstudio/platform/env_released/env/tools/gnu_gcc/arm_gcc/mingw/bin/../lib/gcc/arm-none-eabi/10.3.1/thumb/v7-m/nofp\libgcc.a(_arm_addsubdf3.o)
__aeabi_ul2d                                      g:/rt-threadstudio/platform/env_released/env/tools/gnu_gcc/arm_gcc/mingw/bin/../lib/gcc/arm-none-eabi/10.3.1/thumb/v7-m/nofp\libgcc.a(_arm_addsubdf3.o)
__atexit_recursive_mutex                          g:/rt-threadstudio/platform/env_released/env/tools/gnu_gcc/arm_gcc/mingw/bin/../lib/gcc/arm-none-eabi/10.3.1/../../../../arm-none-eabi/lib/thumb/v7-m/nofp\libc.a(lib_a-__call_atexit.o)
                                                  g:/rt-threadstudio/platform/env_released/env/tools/gnu_gcc/arm_gcc/mingw/bin/../lib/gcc/arm-none-eabi/10.3.1/../../../../arm-none-eabi/lib/thumb/v7-m/nofp\libc.a(lib_a-__atexit.o)
__bss_end                                         libraries\HAL_Drivers\drv_common.o
__bss_end__                                       g:/rt-threadstudio/platform/env_released/env/tools/gnu_gcc/arm_gcc/mingw/bin/../lib/gcc/arm-none-eabi/10.3.1/../../../../arm-none-eabi/lib/thumb/v7-m/nofp/crt0.o
__bss_start__                                     g:/rt-threadstudio/platform/env_released/env/tools/gnu_gcc/arm_gcc/mingw/bin/../lib/gcc/arm-none-eabi/10.3.1/../../../../arm-none-eabi/lib/thumb/v7-m/nofp/crt0.o
__call_exitprocs                                  g:/rt-threadstudio/platform/env_released/env/tools/gnu_gcc/arm_gcc/mingw/bin/../lib/gcc/arm-none-eabi/10.3.1/../../../../arm-none-eabi/lib/thumb/v7-m/nofp\libc.a(lib_a-__call_atexit.o)
                                                  g:/rt-threadstudio/platform/env_released/env/tools/gnu_gcc/arm_gcc/mingw/bin/../lib/gcc/arm-none-eabi/10.3.1/../../../../arm-none-eabi/lib/thumb/v7-m/nofp\libc.a(lib_a-exit.o)
__deregister_frame_info                           g:/rt-threadstudio/platform/env_released/env/tools/gnu_gcc/arm_gcc/mingw/bin/../lib/gcc/arm-none-eabi/10.3.1/thumb/v7-m/nofp/crtbegin.o
__div0                                            build\kernel\libcpu\arm\common\div0.o
__dso_handle                                      g:/rt-threadstudio/platform/env_released/env/tools/gnu_gcc/arm_gcc/mingw/bin/../lib/gcc/arm-none-eabi/10.3.1/thumb/v7-m/nofp/crtbegin.o
__errno                                           build\kernel\components\libc\compilers\newlib\syscalls.o
                                                  g:/rt-threadstudio/platform/env_released/env/tools/gnu_gcc/arm_gcc/mingw/bin/../lib/gcc/arm-none-eabi/10.3.1/../../../../arm-none-eabi/lib/thumb/v7-m/nofp\libc.a(lib_a-strtol.o)
__extendsfdf2                                     g:/rt-threadstudio/platform/env_released/env/tools/gnu_gcc/arm_gcc/mingw/bin/../lib/gcc/arm-none-eabi/10.3.1/thumb/v7-m/nofp\libgcc.a(_arm_addsubdf3.o)
__fini_array_end                                  g:/rt-threadstudio/platform/env_released/env/tools/gnu_gcc/arm_gcc/mingw/bin/../lib/gcc/arm-none-eabi/10.3.1/../../../../arm-none-eabi/lib/thumb/v7-m/nofp\libc.a(lib_a-fini.o)
__fini_array_start                                g:/rt-threadstudio/platform/env_released/env/tools/gnu_gcc/arm_gcc/mingw/bin/../lib/gcc/arm-none-eabi/10.3.1/../../../../arm-none-eabi/lib/thumb/v7-m/nofp\libc.a(lib_a-fini.o)
__floatdidf                                       g:/rt-threadstudio/platform/env_released/env/tools/gnu_gcc/arm_gcc/mingw/bin/../lib/gcc/arm-none-eabi/10.3.1/thumb/v7-m/nofp\libgcc.a(_arm_addsubdf3.o)
__floatsidf                                       g:/rt-threadstudio/platform/env_released/env/tools/gnu_gcc/arm_gcc/mingw/bin/../lib/gcc/arm-none-eabi/10.3.1/thumb/v7-m/nofp\libgcc.a(_arm_addsubdf3.o)
__floatundidf                                     g:/rt-threadstudio/platform/env_released/env/tools/gnu_gcc/arm_gcc/mingw/bin/../lib/gcc/arm-none-eabi/10.3.1/thumb/v7-m/nofp\libgcc.a(_arm_addsubdf3.o)
__floatunsidf                                     g:/rt-threadstudio/platform/env_released/env/tools/gnu_gcc/arm_gcc/mingw/bin/../lib/gcc/arm-none-eabi/10.3.1/thumb/v7-m/nofp\libgcc.a(_arm_addsubdf3.o)
__fsym_cat                                        build\kernel\components\finsh\msh_file.o
__fsym_cat_desc                                   build\kernel\components\finsh\msh_file.o
__fsym_cat_name                                   build\kernel\components\finsh\msh_file.o
__fsym_cd                                         build\kernel\components\finsh\msh_file.o
__fsym_cd_desc                                    build\kernel\components\finsh\msh_file.o
__fsym_cd_name                                    build\kernel\components\finsh\msh_file.o
__fsym_clear                                      build\kernel\components\finsh\cmd.o
__fsym_clear_desc                                 build\kernel\components\finsh\cmd.o
__fsym_clear_name                                 build\kernel\components\finsh\cmd.o
__fsym_cp                                         build\kernel\components\finsh\msh_file.o
__fsym_cp_desc                                    build\kernel\components\finsh\msh_file.o
__fsym_cp_name                                    build\kernel\components\finsh\msh_file.o
__fsym_df                                         build\kernel\components\finsh\msh_file.o
__fsym_df_desc                                    build\kernel\components\finsh\msh_file.o
__fsym_df_name                                    build\kernel\components\finsh\msh_file.o
__fsym_echo                                       build\kernel\components\finsh\msh_file.o
__fsym_echo_desc                                  build\kernel\components\finsh\msh_file.o
__fsym_echo_name                                  build\kernel\components\finsh\msh_file.o
__fsym_free                                       build\kernel\components\finsh\msh.o
__fsym_free_desc                                  build\kernel\components\finsh\msh.o
__fsym_free_name                                  build\kernel\components\finsh\msh.o
__fsym_help                                       build\kernel\components\finsh\msh.o
__fsym_help_desc                                  build\kernel\components\finsh\msh.o
__fsym_help_name                                  build\kernel\components\finsh\msh.o
__fsym_list                                       build\kernel\components\finsh\cmd.o
__fsym_list_desc                                  build\kernel\components\finsh\cmd.o
__fsym_list_device                                build\kernel\components\finsh\cmd.o
__fsym_list_device_desc                           build\kernel\components\finsh\cmd.o
__fsym_list_device_name                           build\kernel\components\finsh\cmd.o
__fsym_list_event                                 build\kernel\components\finsh\cmd.o
__fsym_list_event_desc                            build\kernel\components\finsh\cmd.o
__fsym_list_event_name                            build\kernel\components\finsh\cmd.o
__fsym_list_fd                                    build\kernel\components\dfs\src\dfs.o
__fsym_list_fd_desc                               build\kernel\components\dfs\src\dfs.o
__fsym_list_fd_name                               build\kernel\components\dfs\src\dfs.o
__fsym_list_mailbox                               build\kernel\components\finsh\cmd.o
__fsym_list_mailbox_desc                          build\kernel\components\finsh\cmd.o
__fsym_list_mailbox_name                          build\kernel\components\finsh\cmd.o
__fsym_list_mempool                               build\kernel\components\finsh\cmd.o
__fsym_list_mempool_desc                          build\kernel\components\finsh\cmd.o
__fsym_list_mempool_name                          build\kernel\components\finsh\cmd.o
__fsym_list_msgqueue                              build\kernel\components\finsh\cmd.o
__fsym_list_msgqueue_desc                         build\kernel\components\finsh\cmd.o
__fsym_list_msgqueue_name                         build\kernel\components\finsh\cmd.o
__fsym_list_mutex                                 build\kernel\components\finsh\cmd.o
__fsym_list_mutex_desc                            build\kernel\components\finsh\cmd.o
__fsym_list_mutex_name                            build\kernel\components\finsh\cmd.o
__fsym_list_name                                  build\kernel\components\finsh\cmd.o
__fsym_list_sem                                   build\kernel\components\finsh\cmd.o
__fsym_list_sem_desc                              build\kernel\components\finsh\cmd.o
__fsym_list_sem_name                              build\kernel\components\finsh\cmd.o
__fsym_list_thread                                build\kernel\components\finsh\cmd.o
__fsym_list_thread_desc                           build\kernel\components\finsh\cmd.o
__fsym_list_thread_name                           build\kernel\components\finsh\cmd.o
__fsym_list_timer                                 build\kernel\components\finsh\cmd.o
__fsym_list_timer_desc                            build\kernel\components\finsh\cmd.o
__fsym_list_timer_name                            build\kernel\components\finsh\cmd.o
__fsym_ls                                         build\kernel\components\finsh\msh_file.o
__fsym_ls_desc                                    build\kernel\components\finsh\msh_file.o
__fsym_ls_name                                    build\kernel\components\finsh\msh_file.o
__fsym_mkdir                                      build\kernel\components\finsh\msh_file.o
__fsym_mkdir_desc                                 build\kernel\components\finsh\msh_file.o
__fsym_mkdir_name                                 build\kernel\components\finsh\msh_file.o
__fsym_mkfs                                       build\kernel\components\finsh\msh_file.o
__fsym_mkfs_desc                                  build\kernel\components\finsh\msh_file.o
__fsym_mkfs_name                                  build\kernel\components\finsh\msh_file.o
__fsym_mount                                      build\kernel\components\finsh\msh_file.o
__fsym_mount_desc                                 build\kernel\components\finsh\msh_file.o
__fsym_mount_name                                 build\kernel\components\finsh\msh_file.o
__fsym_mv                                         build\kernel\components\finsh\msh_file.o
__fsym_mv_desc                                    build\kernel\components\finsh\msh_file.o
__fsym_mv_name                                    build\kernel\components\finsh\msh_file.o
__fsym_pin                                        build\kernel\components\drivers\misc\pin.o
__fsym_pin_desc                                   build\kernel\components\drivers\misc\pin.o
__fsym_pin_name                                   build\kernel\components\drivers\misc\pin.o
__fsym_ps                                         build\kernel\components\finsh\msh.o
__fsym_ps_desc                                    build\kernel\components\finsh\msh.o
__fsym_ps_name                                    build\kernel\components\finsh\msh.o
__fsym_pwd                                        build\kernel\components\finsh\msh_file.o
__fsym_pwd_desc                                   build\kernel\components\finsh\msh_file.o
__fsym_pwd_name                                   build\kernel\components\finsh\msh_file.o
__fsym_reboot                                     libraries\HAL_Drivers\drv_common.o
__fsym_reboot_desc                                libraries\HAL_Drivers\drv_common.o
__fsym_reboot_name                                libraries\HAL_Drivers\drv_common.o
__fsym_rm                                         build\kernel\components\finsh\msh_file.o
__fsym_rm_desc                                    build\kernel\components\finsh\msh_file.o
__fsym_rm_name                                    build\kernel\components\finsh\msh_file.o
__fsym_tail                                       build\kernel\components\finsh\msh_file.o
__fsym_tail_desc                                  build\kernel\components\finsh\msh_file.o
__fsym_tail_name                                  build\kernel\components\finsh\msh_file.o
__fsym_umount                                     build\kernel\components\finsh\msh_file.o
__fsym_umount_desc                                build\kernel\components\finsh\msh_file.o
__fsym_umount_name                                build\kernel\components\finsh\msh_file.o
__fsym_version                                    build\kernel\components\finsh\cmd.o
__fsym_version_desc                               build\kernel\components\finsh\cmd.o
__fsym_version_name                               build\kernel\components\finsh\cmd.o
__fsymtab_end                                     build\kernel\components\finsh\shell.o
__fsymtab_start                                   build\kernel\components\finsh\shell.o
__libc_fini                                       g:/rt-threadstudio/platform/env_released/env/tools/gnu_gcc/arm_gcc/mingw/bin/../lib/gcc/arm-none-eabi/10.3.1/../../../../arm-none-eabi/lib/thumb/v7-m/nofp\libc.a(lib_a-__call_atexit.o)
__libc_fini_array                                 g:/rt-threadstudio/platform/env_released/env/tools/gnu_gcc/arm_gcc/mingw/bin/../lib/gcc/arm-none-eabi/10.3.1/../../../../arm-none-eabi/lib/thumb/v7-m/nofp\libc.a(lib_a-fini.o)
                                                  g:/rt-threadstudio/platform/env_released/env/tools/gnu_gcc/arm_gcc/mingw/bin/../lib/gcc/arm-none-eabi/10.3.1/../../../../arm-none-eabi/lib/thumb/v7-m/nofp\libc.a(lib_a-__call_atexit.o)
                                                  g:/rt-threadstudio/platform/env_released/env/tools/gnu_gcc/arm_gcc/mingw/bin/../lib/gcc/arm-none-eabi/10.3.1/../../../../arm-none-eabi/lib/thumb/v7-m/nofp/crt0.o
__libc_init_array                                 build\kernel\components\libc\compilers\newlib\syscalls.o
                                                  libraries\STM32F1xx_HAL\CMSIS\Device\ST\STM32F1xx\Source\Templates\gcc\startup_stm32f103xb.o
                                                  g:/rt-threadstudio/platform/env_released/env/tools/gnu_gcc/arm_gcc/mingw/bin/../lib/gcc/arm-none-eabi/10.3.1/../../../../arm-none-eabi/lib/thumb/v7-m/nofp/crt0.o
__lock___arc4random_mutex                         g:/rt-threadstudio/platform/env_released/env/tools/gnu_gcc/arm_gcc/mingw/bin/../lib/gcc/arm-none-eabi/10.3.1/../../../../arm-none-eabi/lib/thumb/v7-m/nofp\libc.a(lib_a-lock.o)
__lock___at_quick_exit_mutex                      g:/rt-threadstudio/platform/env_released/env/tools/gnu_gcc/arm_gcc/mingw/bin/../lib/gcc/arm-none-eabi/10.3.1/../../../../arm-none-eabi/lib/thumb/v7-m/nofp\libc.a(lib_a-lock.o)
__lock___atexit_recursive_mutex                   g:/rt-threadstudio/platform/env_released/env/tools/gnu_gcc/arm_gcc/mingw/bin/../lib/gcc/arm-none-eabi/10.3.1/../../../../arm-none-eabi/lib/thumb/v7-m/nofp\libc.a(lib_a-lock.o)
                                                  g:/rt-threadstudio/platform/env_released/env/tools/gnu_gcc/arm_gcc/mingw/bin/../lib/gcc/arm-none-eabi/10.3.1/../../../../arm-none-eabi/lib/thumb/v7-m/nofp\libc.a(lib_a-__call_atexit.o)
__lock___dd_hash_mutex                            g:/rt-threadstudio/platform/env_released/env/tools/gnu_gcc/arm_gcc/mingw/bin/../lib/gcc/arm-none-eabi/10.3.1/../../../../arm-none-eabi/lib/thumb/v7-m/nofp\libc.a(lib_a-lock.o)
__lock___env_recursive_mutex                      g:/rt-threadstudio/platform/env_released/env/tools/gnu_gcc/arm_gcc/mingw/bin/../lib/gcc/arm-none-eabi/10.3.1/../../../../arm-none-eabi/lib/thumb/v7-m/nofp\libc.a(lib_a-lock.o)
__lock___malloc_recursive_mutex                   g:/rt-threadstudio/platform/env_released/env/tools/gnu_gcc/arm_gcc/mingw/bin/../lib/gcc/arm-none-eabi/10.3.1/../../../../arm-none-eabi/lib/thumb/v7-m/nofp\libc.a(lib_a-lock.o)
__lock___sfp_recursive_mutex                      g:/rt-threadstudio/platform/env_released/env/tools/gnu_gcc/arm_gcc/mingw/bin/../lib/gcc/arm-none-eabi/10.3.1/../../../../arm-none-eabi/lib/thumb/v7-m/nofp\libc.a(lib_a-lock.o)
__lock___sinit_recursive_mutex                    g:/rt-threadstudio/platform/env_released/env/tools/gnu_gcc/arm_gcc/mingw/bin/../lib/gcc/arm-none-eabi/10.3.1/../../../../arm-none-eabi/lib/thumb/v7-m/nofp\libc.a(lib_a-lock.o)
__lock___tz_mutex                                 g:/rt-threadstudio/platform/env_released/env/tools/gnu_gcc/arm_gcc/mingw/bin/../lib/gcc/arm-none-eabi/10.3.1/../../../../arm-none-eabi/lib/thumb/v7-m/nofp\libc.a(lib_a-lock.o)
__register_exitproc                               g:/rt-threadstudio/platform/env_released/env/tools/gnu_gcc/arm_gcc/mingw/bin/../lib/gcc/arm-none-eabi/10.3.1/../../../../arm-none-eabi/lib/thumb/v7-m/nofp\libc.a(lib_a-__atexit.o)
                                                  g:/rt-threadstudio/platform/env_released/env/tools/gnu_gcc/arm_gcc/mingw/bin/../lib/gcc/arm-none-eabi/10.3.1/../../../../arm-none-eabi/lib/thumb/v7-m/nofp\libc.a(lib_a-atexit.o)
__register_frame_info                             g:/rt-threadstudio/platform/env_released/env/tools/gnu_gcc/arm_gcc/mingw/bin/../lib/gcc/arm-none-eabi/10.3.1/thumb/v7-m/nofp/crtbegin.o
__retarget_lock_acquire                           g:/rt-threadstudio/platform/env_released/env/tools/gnu_gcc/arm_gcc/mingw/bin/../lib/gcc/arm-none-eabi/10.3.1/../../../../arm-none-eabi/lib/thumb/v7-m/nofp\libc.a(lib_a-lock.o)
__retarget_lock_acquire_recursive                 g:/rt-threadstudio/platform/env_released/env/tools/gnu_gcc/arm_gcc/mingw/bin/../lib/gcc/arm-none-eabi/10.3.1/../../../../arm-none-eabi/lib/thumb/v7-m/nofp\libc.a(lib_a-lock.o)
                                                  g:/rt-threadstudio/platform/env_released/env/tools/gnu_gcc/arm_gcc/mingw/bin/../lib/gcc/arm-none-eabi/10.3.1/../../../../arm-none-eabi/lib/thumb/v7-m/nofp\libc.a(lib_a-__atexit.o)
                                                  g:/rt-threadstudio/platform/env_released/env/tools/gnu_gcc/arm_gcc/mingw/bin/../lib/gcc/arm-none-eabi/10.3.1/../../../../arm-none-eabi/lib/thumb/v7-m/nofp\libc.a(lib_a-__call_atexit.o)
__retarget_lock_close                             g:/rt-threadstudio/platform/env_released/env/tools/gnu_gcc/arm_gcc/mingw/bin/../lib/gcc/arm-none-eabi/10.3.1/../../../../arm-none-eabi/lib/thumb/v7-m/nofp\libc.a(lib_a-lock.o)
__retarget_lock_close_recursive                   g:/rt-threadstudio/platform/env_released/env/tools/gnu_gcc/arm_gcc/mingw/bin/../lib/gcc/arm-none-eabi/10.3.1/../../../../arm-none-eabi/lib/thumb/v7-m/nofp\libc.a(lib_a-lock.o)
__retarget_lock_init                              g:/rt-threadstudio/platform/env_released/env/tools/gnu_gcc/arm_gcc/mingw/bin/../lib/gcc/arm-none-eabi/10.3.1/../../../../arm-none-eabi/lib/thumb/v7-m/nofp\libc.a(lib_a-lock.o)
__retarget_lock_init_recursive                    g:/rt-threadstudio/platform/env_released/env/tools/gnu_gcc/arm_gcc/mingw/bin/../lib/gcc/arm-none-eabi/10.3.1/../../../../arm-none-eabi/lib/thumb/v7-m/nofp\libc.a(lib_a-lock.o)
__retarget_lock_release                           g:/rt-threadstudio/platform/env_released/env/tools/gnu_gcc/arm_gcc/mingw/bin/../lib/gcc/arm-none-eabi/10.3.1/../../../../arm-none-eabi/lib/thumb/v7-m/nofp\libc.a(lib_a-lock.o)
__retarget_lock_release_recursive                 g:/rt-threadstudio/platform/env_released/env/tools/gnu_gcc/arm_gcc/mingw/bin/../lib/gcc/arm-none-eabi/10.3.1/../../../../arm-none-eabi/lib/thumb/v7-m/nofp\libc.a(lib_a-lock.o)
                                                  g:/rt-threadstudio/platform/env_released/env/tools/gnu_gcc/arm_gcc/mingw/bin/../lib/gcc/arm-none-eabi/10.3.1/../../../../arm-none-eabi/lib/thumb/v7-m/nofp\libc.a(lib_a-__atexit.o)
                                                  g:/rt-threadstudio/platform/env_released/env/tools/gnu_gcc/arm_gcc/mingw/bin/../lib/gcc/arm-none-eabi/10.3.1/../../../../arm-none-eabi/lib/thumb/v7-m/nofp\libc.a(lib_a-__call_atexit.o)
__retarget_lock_try_acquire                       g:/rt-threadstudio/platform/env_released/env/tools/gnu_gcc/arm_gcc/mingw/bin/../lib/gcc/arm-none-eabi/10.3.1/../../../../arm-none-eabi/lib/thumb/v7-m/nofp\libc.a(lib_a-lock.o)
__retarget_lock_try_acquire_recursive             g:/rt-threadstudio/platform/env_released/env/tools/gnu_gcc/arm_gcc/mingw/bin/../lib/gcc/arm-none-eabi/10.3.1/../../../../arm-none-eabi/lib/thumb/v7-m/nofp\libc.a(lib_a-lock.o)
__rt_ffs                                          build\kernel\libcpu\arm\cortex-m3\cpuport.o
                                                  build\kernel\src\scheduler.o
__rt_init_dfs_init                                build\kernel\components\dfs\src\dfs.o
__rt_init_finsh_system_init                       build\kernel\components\finsh\shell.o
__rt_init_rt_hw_user_key_init                     build\board\ports\user_key.o
__rt_init_rti_board_end                           build\kernel\src\components.o
__rt_init_rti_board_start                         build\kernel\src\components.o
__rt_init_rti_end                                 build\kernel\src\components.o
__rt_init_rti_start                               build\kernel\src\components.o
__rt_libc_exit                                    build\kernel\components\libc\compilers\common\cstdlib.o
                                                  build\kernel\components\libc\compilers\newlib\syscalls.o
__stack                                           g:/rt-threadstudio/platform/env_released/env/tools/gnu_gcc/arm_gcc/mingw/bin/../lib/gcc/arm-none-eabi/10.3.1/../../../../arm-none-eabi/lib/thumb/v7-m/nofp/crt0.o
__subdf3                                          g:/rt-threadstudio/platform/env_released/env/tools/gnu_gcc/arm_gcc/mingw/bin/../lib/gcc/arm-none-eabi/10.3.1/thumb/v7-m/nofp\libgcc.a(_arm_addsubdf3.o)
__udivmoddi4                                      g:/rt-threadstudio/platform/env_released/env/tools/gnu_gcc/arm_gcc/mingw/bin/../lib/gcc/arm-none-eabi/10.3.1/thumb/v7-m/nofp\libgcc.a(_udivmoddi4.o)
                                                  g:/rt-threadstudio/platform/env_released/env/tools/gnu_gcc/arm_gcc/mingw/bin/../lib/gcc/arm-none-eabi/10.3.1/thumb/v7-m/nofp\libgcc.a(_aeabi_ldivmod.o)
__wqueue_default_wake                             build\kernel\components\drivers\ipc\waitqueue.o
_atoi_r                                           g:/rt-threadstudio/platform/env_released/env/tools/gnu_gcc/arm_gcc/mingw/bin/../lib/gcc/arm-none-eabi/10.3.1/../../../../arm-none-eabi/lib/thumb/v7-m/nofp\libc.a(lib_a-atoi.o)
_calloc_r                                         build\kernel\components\libc\compilers\newlib\syscalls.o
_close_r                                          build\kernel\components\libc\compilers\newlib\syscalls.o
_ctype_                                           g:/rt-threadstudio/platform/env_released/env/tools/gnu_gcc/arm_gcc/mingw/bin/../lib/gcc/arm-none-eabi/10.3.1/../../../../arm-none-eabi/lib/thumb/v7-m/nofp\libc.a(lib_a-ctype_.o)
                                                  g:/rt-threadstudio/platform/env_released/env/tools/gnu_gcc/arm_gcc/mingw/bin/../lib/gcc/arm-none-eabi/10.3.1/../../../../arm-none-eabi/lib/thumb/v7-m/nofp\libc.a(lib_a-strtol.o)
                                                  build\kernel\components\libc\compilers\common\cstring.o
                                                  build\kernel\components\finsh\msh_parse.o
                                                  build\kernel\components\drivers\misc\pin.o
_ebss                                             libraries\STM32F1xx_HAL\CMSIS\Device\ST\STM32F1xx\Source\Templates\gcc\startup_stm32f103xb.o
_edata                                            libraries\STM32F1xx_HAL\CMSIS\Device\ST\STM32F1xx\Source\Templates\gcc\startup_stm32f103xb.o
_estack                                           libraries\STM32F1xx_HAL\CMSIS\Device\ST\STM32F1xx\Source\Templates\gcc\startup_stm32f103xb.o
_execve_r                                         build\kernel\components\libc\compilers\newlib\syscalls.o
_exit                                             build\kernel\components\libc\compilers\newlib\syscalls.o
                                                  g:/rt-threadstudio/platform/env_released/env/tools/gnu_gcc/arm_gcc/mingw/bin/../lib/gcc/arm-none-eabi/10.3.1/../../../../arm-none-eabi/lib/thumb/v7-m/nofp\libc.a(lib_a-exit.o)
_fcntl_r                                          build\kernel\components\libc\compilers\newlib\syscalls.o
_fini                                             g:/rt-threadstudio/platform/env_released/env/tools/gnu_gcc/arm_gcc/mingw/bin/../lib/gcc/arm-none-eabi/10.3.1/thumb/v7-m/nofp/crti.o
                                                  g:/rt-threadstudio/platform/env_released/env/tools/gnu_gcc/arm_gcc/mingw/bin/../lib/gcc/arm-none-eabi/10.3.1/../../../../arm-none-eabi/lib/thumb/v7-m/nofp\libc.a(lib_a-fini.o)
_fork_r                                           build\kernel\components\libc\compilers\newlib\syscalls.o
_free_r                                           build\kernel\components\libc\compilers\newlib\syscalls.o
                                                  g:/rt-threadstudio/platform/env_released/env/tools/gnu_gcc/arm_gcc/mingw/bin/../lib/gcc/arm-none-eabi/10.3.1/../../../../arm-none-eabi/lib/thumb/v7-m/nofp\libc.a(lib_a-malloc.o)
_fstat_r                                          build\kernel\components\libc\compilers\newlib\syscalls.o
_getpid_r                                         build\kernel\components\libc\compilers\newlib\syscalls.o
_global_impure_ptr                                g:/rt-threadstudio/platform/env_released/env/tools/gnu_gcc/arm_gcc/mingw/bin/../lib/gcc/arm-none-eabi/10.3.1/../../../../arm-none-eabi/lib/thumb/v7-m/nofp\libc.a(lib_a-impure.o)
                                                  g:/rt-threadstudio/platform/env_released/env/tools/gnu_gcc/arm_gcc/mingw/bin/../lib/gcc/arm-none-eabi/10.3.1/../../../../arm-none-eabi/lib/thumb/v7-m/nofp\libc.a(lib_a-__atexit.o)
                                                  g:/rt-threadstudio/platform/env_released/env/tools/gnu_gcc/arm_gcc/mingw/bin/../lib/gcc/arm-none-eabi/10.3.1/../../../../arm-none-eabi/lib/thumb/v7-m/nofp\libc.a(lib_a-__call_atexit.o)
                                                  g:/rt-threadstudio/platform/env_released/env/tools/gnu_gcc/arm_gcc/mingw/bin/../lib/gcc/arm-none-eabi/10.3.1/../../../../arm-none-eabi/lib/thumb/v7-m/nofp\libc.a(lib_a-exit.o)
_impure_ptr                                       g:/rt-threadstudio/platform/env_released/env/tools/gnu_gcc/arm_gcc/mingw/bin/../lib/gcc/arm-none-eabi/10.3.1/../../../../arm-none-eabi/lib/thumb/v7-m/nofp\libc.a(lib_a-impure.o)
                                                  g:/rt-threadstudio/platform/env_released/env/tools/gnu_gcc/arm_gcc/mingw/bin/../lib/gcc/arm-none-eabi/10.3.1/../../../../arm-none-eabi/lib/thumb/v7-m/nofp\libc.a(lib_a-strtol.o)
                                                  g:/rt-threadstudio/platform/env_released/env/tools/gnu_gcc/arm_gcc/mingw/bin/../lib/gcc/arm-none-eabi/10.3.1/../../../../arm-none-eabi/lib/thumb/v7-m/nofp\libc.a(lib_a-malloc.o)
_init                                             g:/rt-threadstudio/platform/env_released/env/tools/gnu_gcc/arm_gcc/mingw/bin/../lib/gcc/arm-none-eabi/10.3.1/thumb/v7-m/nofp/crti.o
_isatty_r                                         build\kernel\components\libc\compilers\newlib\syscalls.o
_kill_r                                           build\kernel\components\libc\compilers\newlib\syscalls.o
_link_r                                           build\kernel\components\libc\compilers\newlib\syscalls.o
_lseek_r                                          build\kernel\components\libc\compilers\newlib\syscalls.o
_mainCRTStartup                                   g:/rt-threadstudio/platform/env_released/env/tools/gnu_gcc/arm_gcc/mingw/bin/../lib/gcc/arm-none-eabi/10.3.1/../../../../arm-none-eabi/lib/thumb/v7-m/nofp/crt0.o
_malloc_r                                         build\kernel\components\libc\compilers\newlib\syscalls.o
                                                  g:/rt-threadstudio/platform/env_released/env/tools/gnu_gcc/arm_gcc/mingw/bin/../lib/gcc/arm-none-eabi/10.3.1/../../../../arm-none-eabi/lib/thumb/v7-m/nofp\libc.a(lib_a-malloc.o)
_mkdir_r                                          build\kernel\components\libc\compilers\newlib\syscalls.o
_open_r                                           build\kernel\components\libc\compilers\newlib\syscalls.o
_read_r                                           build\kernel\components\libc\compilers\newlib\syscalls.o
_realloc_r                                        build\kernel\components\libc\compilers\newlib\syscalls.o
_rename_r                                         build\kernel\components\libc\compilers\newlib\syscalls.o
_rt_errno                                         build\kernel\src\kservice.o
                                                  build\kernel\components\libc\compilers\newlib\syscalls.o
_sbss                                             libraries\STM32F1xx_HAL\CMSIS\Device\ST\STM32F1xx\Source\Templates\gcc\startup_stm32f103xb.o
_sdata                                            libraries\STM32F1xx_HAL\CMSIS\Device\ST\STM32F1xx\Source\Templates\gcc\startup_stm32f103xb.o
_sidata                                           libraries\STM32F1xx_HAL\CMSIS\Device\ST\STM32F1xx\Source\Templates\gcc\startup_stm32f103xb.o
_stack_init                                       g:/rt-threadstudio/platform/env_released/env/tools/gnu_gcc/arm_gcc/mingw/bin/../lib/gcc/arm-none-eabi/10.3.1/../../../../arm-none-eabi/lib/thumb/v7-m/nofp/crt0.o
_start                                            g:/rt-threadstudio/platform/env_released/env/tools/gnu_gcc/arm_gcc/mingw/bin/../lib/gcc/arm-none-eabi/10.3.1/../../../../arm-none-eabi/lib/thumb/v7-m/nofp/crt0.o
_stat_r                                           build\kernel\components\libc\compilers\newlib\syscalls.o
_strtol_r                                         g:/rt-threadstudio/platform/env_released/env/tools/gnu_gcc/arm_gcc/mingw/bin/../lib/gcc/arm-none-eabi/10.3.1/../../../../arm-none-eabi/lib/thumb/v7-m/nofp\libc.a(lib_a-strtol.o)
                                                  g:/rt-threadstudio/platform/env_released/env/tools/gnu_gcc/arm_gcc/mingw/bin/../lib/gcc/arm-none-eabi/10.3.1/../../../../arm-none-eabi/lib/thumb/v7-m/nofp\libc.a(lib_a-atoi.o)
_syscall_table_begin                              build\kernel\components\finsh\shell.o
                                                  build\kernel\components\finsh\msh.o
_syscall_table_end                                build\kernel\components\finsh\shell.o
                                                  build\kernel\components\finsh\msh.o
_unlink_r                                         build\kernel\components\libc\compilers\newlib\syscalls.o
_wait_r                                           build\kernel\components\libc\compilers\newlib\syscalls.o
_write_r                                          build\kernel\components\libc\compilers\newlib\syscalls.o
access                                            build\kernel\components\dfs\src\dfs_posix.o
asctime                                           build\kernel\components\libc\compilers\common\ctime.o
asctime_r                                         build\kernel\components\libc\compilers\common\ctime.o
atexit                                            g:/rt-threadstudio/platform/env_released/env/tools/gnu_gcc/arm_gcc/mingw/bin/../lib/gcc/arm-none-eabi/10.3.1/../../../../arm-none-eabi/lib/thumb/v7-m/nofp\libc.a(lib_a-atexit.o)
                                                  g:/rt-threadstudio/platform/env_released/env/tools/gnu_gcc/arm_gcc/mingw/bin/../lib/gcc/arm-none-eabi/10.3.1/../../../../arm-none-eabi/lib/thumb/v7-m/nofp\libc.a(lib_a-__call_atexit.o)
                                                  g:/rt-threadstudio/platform/env_released/env/tools/gnu_gcc/arm_gcc/mingw/bin/../lib/gcc/arm-none-eabi/10.3.1/../../../../arm-none-eabi/lib/thumb/v7-m/nofp/crt0.o
atoi                                              g:/rt-threadstudio/platform/env_released/env/tools/gnu_gcc/arm_gcc/mingw/bin/../lib/gcc/arm-none-eabi/10.3.1/../../../../arm-none-eabi/lib/thumb/v7-m/nofp\libc.a(lib_a-atoi.o)
                                                  build\kernel\components\finsh\msh_file.o
                                                  build\kernel\components\drivers\misc\pin.o
bcmp                                              build\kernel\components\libc\compilers\common\cstring.o
bcopy                                             build\kernel\components\libc\compilers\common\cstring.o
bzero                                             build\kernel\components\libc\compilers\common\cstring.o
cat                                               build\kernel\components\dfs\src\dfs_file.o
                                                  build\kernel\components\finsh\msh_file.o
chdir                                             build\kernel\components\dfs\src\dfs_posix.o
                                                  build\kernel\components\finsh\msh_file.o
clock                                             build\kernel\components\libc\compilers\common\ctime.o
close                                             build\kernel\components\dfs\src\dfs_posix.o
                                                  build\kernel\components\libc\compilers\newlib\syscalls.o
                                                  build\kernel\components\finsh\msh_file.o
closedir                                          build\kernel\components\dfs\src\dfs_posix.o
                                                  build\kernel\components\finsh\msh_file.o
                                                  build\kernel\components\finsh\msh.o
cmd_free                                          build\kernel\components\finsh\msh.o
cmd_list                                          build\kernel\components\finsh\cmd.o
cmd_ps                                            build\kernel\components\finsh\msh.o
copy                                              build\kernel\components\dfs\src\dfs_file.o
                                                  build\kernel\components\finsh\msh_file.o
creat                                             build\kernel\components\dfs\src\dfs_posix.o
ctime                                             build\kernel\components\libc\compilers\common\ctime.o
ctime_r                                           build\kernel\components\libc\compilers\common\ctime.o
df                                                build\kernel\components\dfs\src\dfs_fs.o
                                                  build\kernel\components\finsh\msh_file.o
dfs_fdtable_get                                   build\kernel\components\dfs\src\dfs.o
dfs_file_close                                    build\kernel\components\dfs\src\dfs_file.o
                                                  build\kernel\components\dfs\src\dfs_fs.o
                                                  build\kernel\components\dfs\src\dfs_posix.o
dfs_file_flush                                    build\kernel\components\dfs\src\dfs_file.o
                                                  build\kernel\components\dfs\src\dfs_posix.o
dfs_file_ftruncate                                build\kernel\components\dfs\src\dfs_file.o
                                                  build\kernel\components\dfs\src\dfs_posix.o
dfs_file_getdents                                 build\kernel\components\dfs\src\dfs_file.o
                                                  build\kernel\components\dfs\src\dfs_posix.o
dfs_file_ioctl                                    build\kernel\components\dfs\src\dfs_file.o
                                                  build\kernel\components\dfs\src\dfs_posix.o
dfs_file_lseek                                    build\kernel\components\dfs\src\dfs_file.o
                                                  build\kernel\components\dfs\src\dfs_posix.o
dfs_file_open                                     build\kernel\components\dfs\src\dfs_file.o
                                                  build\kernel\components\dfs\src\dfs_fs.o
                                                  build\kernel\components\dfs\src\dfs_posix.o
dfs_file_read                                     build\kernel\components\dfs\src\dfs_file.o
                                                  build\kernel\components\dfs\src\dfs_posix.o
dfs_file_rename                                   build\kernel\components\dfs\src\dfs_file.o
                                                  build\kernel\components\dfs\src\dfs_posix.o
dfs_file_stat                                     build\kernel\components\dfs\src\dfs_file.o
                                                  build\kernel\components\dfs\src\dfs_posix.o
dfs_file_unlink                                   build\kernel\components\dfs\src\dfs_file.o
                                                  build\kernel\components\dfs\src\dfs_posix.o
dfs_file_write                                    build\kernel\components\dfs\src\dfs_file.o
                                                  build\kernel\components\dfs\src\dfs_posix.o
dfs_filesystem_get_mounted_path                   build\kernel\components\dfs\src\dfs_fs.o
dfs_filesystem_get_partition                      build\kernel\components\dfs\src\dfs_fs.o
dfs_filesystem_lookup                             build\kernel\components\dfs\src\dfs_fs.o
                                                  build\kernel\components\dfs\src\dfs_file.o
                                                  build\kernel\components\dfs\src\dfs.o
dfs_init                                          build\kernel\components\dfs\src\dfs.o
dfs_lock                                          build\kernel\components\dfs\src\dfs.o
                                                  build\kernel\components\dfs\src\dfs_fs.o
                                                  build\kernel\components\dfs\src\dfs_posix.o
dfs_mkfs                                          build\kernel\components\dfs\src\dfs_fs.o
                                                  build\kernel\components\finsh\msh_file.o
dfs_mount                                         build\kernel\components\dfs\src\dfs_fs.o
                                                  build\kernel\components\finsh\msh_file.o
dfs_normalize_path                                build\kernel\components\dfs\src\dfs.o
                                                  build\kernel\components\dfs\src\dfs_file.o
                                                  build\kernel\components\dfs\src\dfs_fs.o
                                                  build\kernel\components\dfs\src\dfs_posix.o
dfs_register                                      build\kernel\components\dfs\src\dfs_fs.o
dfs_statfs                                        build\kernel\components\dfs\src\dfs_fs.o
                                                  build\kernel\components\dfs\src\dfs_posix.o
dfs_subdir                                        build\kernel\components\dfs\src\dfs.o
                                                  build\kernel\components\dfs\src\dfs_file.o
dfs_unlock                                        build\kernel\components\dfs\src\dfs.o
                                                  build\kernel\components\dfs\src\dfs_fs.o
                                                  build\kernel\components\dfs\src\dfs_posix.o
dfs_unmount                                       build\kernel\components\dfs\src\dfs_fs.o
                                                  build\kernel\components\finsh\msh_file.o
difftime                                          build\kernel\components\libc\compilers\common\ctime.o
entry                                             build\kernel\src\components.o
                                                  libraries\STM32F1xx_HAL\CMSIS\Device\ST\STM32F1xx\Source\Templates\gcc\startup_stm32f103xb.o
exit                                              g:/rt-threadstudio/platform/env_released/env/tools/gnu_gcc/arm_gcc/mingw/bin/../lib/gcc/arm-none-eabi/10.3.1/../../../../arm-none-eabi/lib/thumb/v7-m/nofp\libc.a(lib_a-exit.o)
                                                  g:/rt-threadstudio/platform/env_released/env/tools/gnu_gcc/arm_gcc/mingw/bin/../lib/gcc/arm-none-eabi/10.3.1/../../../../arm-none-eabi/lib/thumb/v7-m/nofp/crt0.o
explicit_bzero                                    build\kernel\components\libc\compilers\common\cstring.o
fcntl                                             build\kernel\components\dfs\src\dfs_posix.o
fd_get                                            build\kernel\components\dfs\src\dfs.o
                                                  build\kernel\components\dfs\src\dfs_posix.o
fd_is_open                                        build\kernel\components\dfs\src\dfs.o
                                                  build\kernel\components\dfs\src\dfs_file.o
fd_new                                            build\kernel\components\dfs\src\dfs.o
                                                  build\kernel\components\dfs\src\dfs_posix.o
fd_put                                            build\kernel\components\dfs\src\dfs.o
                                                  build\kernel\components\dfs\src\dfs_posix.o
ffs                                               build\kernel\components\libc\compilers\common\cstring.o
ffsl                                              build\kernel\components\libc\compilers\common\cstring.o
ffsll                                             build\kernel\components\libc\compilers\common\cstring.o
filesystem_operation_table                        build\kernel\components\dfs\src\dfs.o
                                                  build\kernel\components\dfs\src\dfs_fs.o
filesystem_table                                  build\kernel\components\dfs\src\dfs.o
                                                  build\kernel\components\finsh\msh_file.o
                                                  build\kernel\components\dfs\src\dfs_fs.o
finsh_get_device                                  build\kernel\components\finsh\shell.o
finsh_get_echo                                    build\kernel\components\finsh\shell.o
finsh_get_prompt                                  build\kernel\components\finsh\shell.o
finsh_get_prompt_mode                             build\kernel\components\finsh\shell.o
finsh_getchar                                     build\kernel\components\finsh\shell.o
finsh_set_device                                  build\kernel\components\finsh\shell.o
finsh_set_echo                                    build\kernel\components\finsh\shell.o
finsh_set_prompt                                  build\kernel\components\finsh\shell.o
finsh_set_prompt_mode                             build\kernel\components\finsh\shell.o
finsh_system_function_init                        build\kernel\components\finsh\shell.o
finsh_system_init                                 build\kernel\components\finsh\shell.o
finsh_thread_entry                                build\kernel\components\finsh\shell.o
flock                                             build\kernel\components\libc\compilers\newlib\syscalls.o
free                                              g:/rt-threadstudio/platform/env_released/env/tools/gnu_gcc/arm_gcc/mingw/bin/../lib/gcc/arm-none-eabi/10.3.1/../../../../arm-none-eabi/lib/thumb/v7-m/nofp\libc.a(lib_a-malloc.o)
fstat                                             build\kernel\components\dfs\src\dfs_posix.o
fsync                                             build\kernel\components\dfs\src\dfs_posix.o
ftruncate                                         build\kernel\components\dfs\src\dfs_posix.o
g_pfnVectors                                      libraries\STM32F1xx_HAL\CMSIS\Device\ST\STM32F1xx\Source\Templates\gcc\startup_stm32f103xb.o
getcwd                                            build\kernel\components\dfs\src\dfs_posix.o
                                                  build\kernel\components\finsh\msh.o
                                                  build\kernel\components\finsh\shell.o
gettimeofday                                      build\kernel\components\libc\compilers\common\ctime.o
gmtime                                            build\kernel\components\libc\compilers\common\ctime.o
gmtime_r                                          build\kernel\components\libc\compilers\common\ctime.o
hardware_init_hook                                g:/rt-threadstudio/platform/env_released/env/tools/gnu_gcc/arm_gcc/mingw/bin/../lib/gcc/arm-none-eabi/10.3.1/../../../../arm-none-eabi/lib/thumb/v7-m/nofp/crt0.o
index                                             build\kernel\components\libc\compilers\common\cstring.o
ioctl                                             build\kernel\components\dfs\src\dfs_posix.o
isascii                                           build\kernel\components\libc\compilers\common\cctype.o
itoa                                              build\kernel\components\libc\compilers\common\cstdlib.o
list_device                                       build\kernel\components\finsh\cmd.o
list_event                                        build\kernel\components\finsh\cmd.o
list_fd                                           build\kernel\components\dfs\src\dfs.o
                                                  build\kernel\components\finsh\cmd.o
list_mailbox                                      build\kernel\components\finsh\cmd.o
list_mempool                                      build\kernel\components\finsh\cmd.o
list_msgqueue                                     build\kernel\components\finsh\cmd.o
list_mutex                                        build\kernel\components\finsh\cmd.o
list_sem                                          build\kernel\components\finsh\cmd.o
list_thread                                       build\kernel\components\finsh\cmd.o
                                                  build\kernel\components\finsh\msh.o
                                                  build\kernel\libcpu\arm\cortex-m3\cpuport.o
list_timer                                        build\kernel\components\finsh\cmd.o
localtime                                         build\kernel\components\libc\compilers\common\ctime.o
localtime_r                                       build\kernel\components\libc\compilers\common\ctime.o
ls                                                build\kernel\components\dfs\src\dfs_file.o
                                                  build\kernel\components\finsh\msh_file.o
lseek                                             build\kernel\components\dfs\src\dfs_posix.o
                                                  build\kernel\components\libc\compilers\newlib\syscalls.o
                                                  build\kernel\components\finsh\msh_file.o
ltoa                                              build\kernel\components\libc\compilers\common\cstdlib.o
main                                              build\applications\main.o
                                                  build\kernel\src\components.o
                                                  g:/rt-threadstudio/platform/env_released/env/tools/gnu_gcc/arm_gcc/mingw/bin/../lib/gcc/arm-none-eabi/10.3.1/../../../../arm-none-eabi/lib/thumb/v7-m/nofp/crt0.o
main_thread_entry                                 build\kernel\src\components.o
malloc                                            g:/rt-threadstudio/platform/env_released/env/tools/gnu_gcc/arm_gcc/mingw/bin/../lib/gcc/arm-none-eabi/10.3.1/../../../../arm-none-eabi/lib/thumb/v7-m/nofp\libc.a(lib_a-malloc.o)
                                                  build\kernel\components\libc\compilers\common\cstring.o
memcmp                                            g:/rt-threadstudio/platform/env_released/env/tools/gnu_gcc/arm_gcc/mingw/bin/../lib/gcc/arm-none-eabi/10.3.1/../../../../arm-none-eabi/lib/thumb/v7-m/nofp\libc.a(lib_a-memcmp.o)
                                                  g:/rt-threadstudio/platform/env_released/env/tools/gnu_gcc/arm_gcc/mingw/bin/../lib/gcc/arm-none-eabi/10.3.1/../../../../arm-none-eabi/lib/thumb/v7-m/nofp\libc.a(lib_a-strstr.o)
                                                  build\kernel\components\finsh\shell.o
memcpy                                            g:/rt-threadstudio/platform/env_released/env/tools/gnu_gcc/arm_gcc/mingw/bin/../lib/gcc/arm-none-eabi/10.3.1/../../../../arm-none-eabi/lib/thumb/v7-m/nofp\libc.a(lib_a-memcpy.o)
                                                  build\kernel\components\libc\compilers\common\cstring.o
                                                  build\kernel\components\finsh\msh.o
memrchr                                           build\kernel\components\libc\compilers\common\cstring.o
memset                                            g:/rt-threadstudio/platform/env_released/env/tools/gnu_gcc/arm_gcc/mingw/bin/../lib/gcc/arm-none-eabi/10.3.1/../../../../arm-none-eabi/lib/thumb/v7-m/nofp\libc.a(lib_a-memset.o)
                                                  g:/rt-threadstudio/platform/env_released/env/tools/gnu_gcc/arm_gcc/mingw/bin/../lib/gcc/arm-none-eabi/10.3.1/../../../../arm-none-eabi/lib/thumb/v7-m/nofp\libc.a(lib_a-strstr.o)
                                                  build\kernel\components\dfs\src\dfs.o
                                                  build\kernel\src\kservice.o
                                                  g:/rt-threadstudio/platform/env_released/env/tools/gnu_gcc/arm_gcc/mingw/bin/../lib/gcc/arm-none-eabi/10.3.1/../../../../arm-none-eabi/lib/thumb/v7-m/nofp/crt0.o
mkdir                                             build\kernel\components\dfs\src\dfs_posix.o
                                                  build\kernel\components\libc\compilers\newlib\syscalls.o
                                                  build\kernel\components\finsh\msh_file.o
                                                  build\kernel\components\dfs\src\dfs_file.o
mkfs                                              build\kernel\components\dfs\src\dfs_fs.o
mktime                                            build\kernel\components\libc\compilers\common\ctime.o
msh_auto_complete                                 build\kernel\components\finsh\msh.o
                                                  build\kernel\components\finsh\shell.o
msh_auto_complete_path                            build\kernel\components\finsh\msh.o
msh_exec                                          build\kernel\components\finsh\msh.o
                                                  build\kernel\components\libc\compilers\common\cstdlib.o
                                                  build\kernel\components\finsh\msh_file.o
                                                  build\kernel\components\finsh\shell.o
msh_exec_script                                   build\kernel\components\finsh\msh_file.o
                                                  build\kernel\components\finsh\msh.o
msh_help                                          build\kernel\components\finsh\msh.o
msh_ishex                                         build\kernel\components\finsh\msh_parse.o
msh_isint                                         build\kernel\components\finsh\msh_parse.o
                                                  build\kernel\components\drivers\misc\pin.o
msh_strtohex                                      build\kernel\components\finsh\msh_parse.o
open                                              build\kernel\components\dfs\src\dfs_posix.o
                                                  build\kernel\components\libc\compilers\newlib\syscalls.o
                                                  build\kernel\components\finsh\msh_file.o
opendir                                           build\kernel\components\dfs\src\dfs_posix.o
                                                  build\kernel\components\finsh\msh_file.o
                                                  build\kernel\components\finsh\msh.o
read                                              build\kernel\components\dfs\src\dfs_posix.o
                                                  build\kernel\components\libc\compilers\newlib\syscalls.o
                                                  build\kernel\components\finsh\msh_file.o
readdir                                           build\kernel\components\dfs\src\dfs_posix.o
                                                  build\kernel\components\finsh\msh_file.o
                                                  build\kernel\components\finsh\msh.o
rename                                            build\kernel\components\dfs\src\dfs_posix.o
                                                  build\kernel\components\libc\compilers\newlib\syscalls.o
                                                  build\kernel\components\finsh\msh_file.o
rewinddir                                         build\kernel\components\dfs\src\dfs_posix.o
                                                  build\kernel\components\finsh\msh.o
rindex                                            build\kernel\components\libc\compilers\common\cstring.o
rm                                                build\kernel\components\dfs\src\dfs_file.o
rmdir                                             build\kernel\components\dfs\src\dfs_posix.o
rt_application_init                               build\kernel\src\components.o
rt_assert_handler                                 build\kernel\src\kservice.o
                                                  libraries\HAL_Drivers\drv_usart.o
                                                  build\kernel\components\finsh\shell.o
                                                  build\kernel\components\drivers\serial\serial.o
                                                  build\kernel\components\drivers\misc\pin.o
                                                  build\kernel\components\drivers\ipc\pipe.o
                                                  build\kernel\components\drivers\ipc\waitqueue.o
                                                  build\kernel\components\drivers\ipc\ringbuffer.o
                                                  build\kernel\components\drivers\ipc\workqueue.o
                                                  build\kernel\components\drivers\ipc\ringblk_buf.o
                                                  build\kernel\components\drivers\ipc\dataqueue.o
                                                  build\kernel\components\drivers\ipc\completion.o
                                                  build\kernel\components\dfs\src\dfs.o
                                                  build\kernel\components\dfs\src\dfs_fs.o
                                                  build\kernel\libcpu\arm\cortex-m3\cpuport.o
                                                  build\kernel\libcpu\arm\common\showmem.o
                                                  build\kernel\src\object.o
                                                  build\kernel\src\scheduler.o
                                                  build\kernel\src\device.o
                                                  build\kernel\src\ipc.o
                                                  build\kernel\src\thread.o
                                                  build\kernel\src\mempool.o
                                                  build\kernel\src\components.o
                                                  build\kernel\src\timer.o
                                                  build\kernel\src\mem.o
rt_assert_hook                                    build\kernel\src\kservice.o
rt_assert_set_hook                                build\kernel\src\kservice.o
rt_calloc                                         build\kernel\src\kservice.o
                                                  build\kernel\components\libc\compilers\newlib\syscalls.o
                                                  build\kernel\components\finsh\shell.o
                                                  build\kernel\components\dfs\src\dfs.o
rt_completion_done                                build\kernel\components\drivers\ipc\completion.o
                                                  build\kernel\components\drivers\serial\serial.o
rt_completion_init                                build\kernel\components\drivers\ipc\completion.o
                                                  build\kernel\components\drivers\serial\serial.o
rt_completion_wait                                build\kernel\components\drivers\ipc\completion.o
                                                  build\kernel\components\drivers\serial\serial.o
rt_components_board_init                          build\kernel\src\components.o
                                                  libraries\HAL_Drivers\drv_common.o
rt_components_init                                build\kernel\src\components.o
rt_console_get_device                             build\kernel\src\kservice.o
                                                  build\kernel\components\libc\compilers\newlib\syscalls.o
                                                  build\kernel\components\finsh\shell.o
rt_console_set_device                             build\kernel\src\kservice.o
                                                  libraries\HAL_Drivers\drv_common.o
rt_critical_level                                 build\kernel\src\scheduler.o
                                                  build\kernel\components\drivers\ipc\waitqueue.o
                                                  build\kernel\components\drivers\ipc\dataqueue.o
                                                  build\kernel\components\drivers\ipc\completion.o
                                                  build\kernel\src\ipc.o
rt_current_priority                               build\kernel\src\scheduler.o
rt_current_thread                                 build\kernel\src\scheduler.o
                                                  build\kernel\src\thread.o
rt_data_queue_deinit                              build\kernel\components\drivers\ipc\dataqueue.o
                                                  build\kernel\components\drivers\serial\serial.o
rt_data_queue_init                                build\kernel\components\drivers\ipc\dataqueue.o
                                                  build\kernel\components\drivers\serial\serial.o
rt_data_queue_len                                 build\kernel\components\drivers\ipc\dataqueue.o
rt_data_queue_peek                                build\kernel\components\drivers\ipc\dataqueue.o
                                                  build\kernel\components\drivers\serial\serial.o
rt_data_queue_pop                                 build\kernel\components\drivers\ipc\dataqueue.o
                                                  build\kernel\components\drivers\serial\serial.o
rt_data_queue_push                                build\kernel\components\drivers\ipc\dataqueue.o
                                                  build\kernel\components\drivers\serial\serial.o
rt_data_queue_reset                               build\kernel\components\drivers\ipc\dataqueue.o
rt_device_close                                   build\kernel\src\device.o
                                                  build\kernel\components\finsh\shell.o
                                                  build\kernel\components\dfs\src\dfs_fs.o
                                                  build\kernel\src\kservice.o
rt_device_control                                 build\kernel\src\device.o
rt_device_create                                  build\kernel\src\device.o
rt_device_destroy                                 build\kernel\src\device.o
rt_device_find                                    build\kernel\src\device.o
                                                  build\kernel\components\finsh\shell.o
                                                  build\kernel\components\drivers\ipc\pipe.o
                                                  build\kernel\components\dfs\src\dfs_fs.o
                                                  build\kernel\src\kservice.o
rt_device_init                                    build\kernel\src\device.o
rt_device_open                                    build\kernel\src\device.o
                                                  build\kernel\components\finsh\shell.o
                                                  build\kernel\components\dfs\src\dfs_fs.o
                                                  build\kernel\src\kservice.o
rt_device_pin_register                            build\kernel\components\drivers\misc\pin.o
                                                  libraries\HAL_Drivers\drv_gpio.o
rt_device_read                                    build\kernel\src\device.o
                                                  build\kernel\components\finsh\shell.o
rt_device_register                                build\kernel\src\device.o
                                                  build\kernel\components\drivers\serial\serial.o
                                                  build\kernel\components\drivers\misc\pin.o
                                                  build\kernel\components\drivers\ipc\pipe.o
rt_device_set_rx_indicate                         build\kernel\src\device.o
                                                  build\kernel\components\finsh\shell.o
rt_device_set_tx_complete                         build\kernel\src\device.o
rt_device_unregister                              build\kernel\src\device.o
                                                  build\kernel\components\drivers\ipc\pipe.o
rt_device_write                                   build\kernel\src\device.o
                                                  build\kernel\components\libc\compilers\newlib\syscalls.o
                                                  build\kernel\src\kservice.o
rt_enter_critical                                 build\kernel\src\scheduler.o
                                                  build\kernel\components\drivers\ipc\workqueue.o
                                                  build\kernel\components\drivers\ipc\dataqueue.o
                                                  build\kernel\components\dfs\src\dfs.o
                                                  build\kernel\src\object.o
rt_event_control                                  build\kernel\src\ipc.o
rt_event_create                                   build\kernel\src\ipc.o
rt_event_delete                                   build\kernel\src\ipc.o
rt_event_detach                                   build\kernel\src\ipc.o
rt_event_init                                     build\kernel\src\ipc.o
rt_event_recv                                     build\kernel\src\ipc.o
rt_event_send                                     build\kernel\src\ipc.o
rt_exit_critical                                  build\kernel\src\scheduler.o
                                                  build\kernel\components\drivers\ipc\workqueue.o
                                                  build\kernel\components\drivers\ipc\dataqueue.o
                                                  build\kernel\components\dfs\src\dfs.o
                                                  build\kernel\src\object.o
rt_free                                           build\kernel\src\kservice.o
                                                  build\kernel\components\libc\compilers\newlib\syscalls.o
                                                  build\kernel\components\finsh\msh_file.o
                                                  build\kernel\components\finsh\msh.o
                                                  build\kernel\components\finsh\shell.o
                                                  build\kernel\components\drivers\serial\serial.o
                                                  build\kernel\components\drivers\ipc\pipe.o
                                                  build\kernel\components\drivers\ipc\ringbuffer.o
                                                  build\kernel\components\drivers\ipc\workqueue.o
                                                  build\kernel\components\drivers\ipc\ringblk_buf.o
                                                  build\kernel\components\drivers\ipc\dataqueue.o
                                                  build\kernel\components\dfs\src\dfs_file.o
                                                  build\kernel\components\dfs\src\dfs.o
                                                  build\kernel\components\dfs\src\dfs_fs.o
                                                  build\kernel\components\dfs\src\dfs_posix.o
                                                  build\kernel\src\object.o
                                                  build\kernel\src\idle.o
                                                  build\kernel\src\device.o
                                                  build\kernel\src\ipc.o
                                                  build\kernel\src\mempool.o
rt_free_align                                     build\kernel\src\kservice.o
rt_free_sethook                                   build\kernel\src\kservice.o
rt_get_errno                                      build\kernel\src\kservice.o
rt_hw_backtrace                                   build\kernel\libcpu\arm\common\backtrace.o
rt_hw_board_init                                  libraries\HAL_Drivers\drv_common.o
                                                  build\kernel\src\components.o
rt_hw_console_output                              build\kernel\src\kservice.o
rt_hw_context_switch                              build\kernel\libcpu\arm\cortex-m3\context_gcc.o
                                                  build\kernel\src\scheduler.o
rt_hw_context_switch_interrupt                    build\kernel\libcpu\arm\cortex-m3\context_gcc.o
                                                  build\kernel\src\scheduler.o
rt_hw_context_switch_to                           build\kernel\libcpu\arm\cortex-m3\context_gcc.o
                                                  build\kernel\src\scheduler.o
rt_hw_cpu_reset                                   build\kernel\libcpu\arm\cortex-m3\cpuport.o
                                                  libraries\HAL_Drivers\drv_common.o
rt_hw_cpu_shutdown                                build\kernel\libcpu\arm\cortex-m3\cpuport.o
rt_hw_exception_install                           build\kernel\libcpu\arm\cortex-m3\cpuport.o
rt_hw_hard_fault_exception                        build\kernel\libcpu\arm\cortex-m3\cpuport.o
                                                  build\kernel\libcpu\arm\cortex-m3\context_gcc.o
rt_hw_interrupt_check                             build\kernel\libcpu\arm\cortex-m3\context_gcc.o
rt_hw_interrupt_disable                           build\kernel\libcpu\arm\cortex-m3\context_gcc.o
                                                  libraries\HAL_Drivers\drv_usart.o
                                                  libraries\HAL_Drivers\drv_gpio.o
                                                  build\kernel\components\libc\compilers\common\ctime.o
                                                  build\kernel\components\finsh\cmd.o
                                                  build\kernel\components\drivers\serial\serial.o
                                                  build\kernel\components\drivers\ipc\waitqueue.o
                                                  build\kernel\components\drivers\ipc\workqueue.o
                                                  build\kernel\components\drivers\ipc\ringblk_buf.o
                                                  build\kernel\components\drivers\ipc\dataqueue.o
                                                  build\kernel\components\drivers\ipc\completion.o
                                                  build\kernel\src\object.o
                                                  build\kernel\src\idle.o
                                                  build\kernel\src\scheduler.o
                                                  build\kernel\src\ipc.o
                                                  build\kernel\src\clock.o
                                                  build\kernel\src\thread.o
                                                  build\kernel\src\mempool.o
                                                  build\kernel\src\components.o
                                                  build\kernel\src\irq.o
                                                  build\kernel\src\timer.o
rt_hw_interrupt_enable                            build\kernel\libcpu\arm\cortex-m3\context_gcc.o
                                                  libraries\HAL_Drivers\drv_usart.o
                                                  libraries\HAL_Drivers\drv_gpio.o
                                                  build\kernel\components\libc\compilers\common\ctime.o
                                                  build\kernel\components\finsh\cmd.o
                                                  build\kernel\components\drivers\serial\serial.o
                                                  build\kernel\components\drivers\ipc\waitqueue.o
                                                  build\kernel\components\drivers\ipc\workqueue.o
                                                  build\kernel\components\drivers\ipc\ringblk_buf.o
                                                  build\kernel\components\drivers\ipc\dataqueue.o
                                                  build\kernel\components\drivers\ipc\completion.o
                                                  build\kernel\src\object.o
                                                  build\kernel\src\idle.o
                                                  build\kernel\src\scheduler.o
                                                  build\kernel\src\ipc.o
                                                  build\kernel\src\clock.o
                                                  build\kernel\src\thread.o
                                                  build\kernel\src\mempool.o
                                                  build\kernel\src\irq.o
                                                  build\kernel\src\timer.o
rt_hw_interrupt_thread_switch                     build\kernel\libcpu\arm\cortex-m3\context_gcc.o
rt_hw_pin_init                                    libraries\HAL_Drivers\drv_gpio.o
                                                  libraries\HAL_Drivers\drv_common.o
rt_hw_serial_isr                                  build\kernel\components\drivers\serial\serial.o
                                                  libraries\HAL_Drivers\drv_usart.o
rt_hw_serial_register                             build\kernel\components\drivers\serial\serial.o
                                                  libraries\HAL_Drivers\drv_usart.o
rt_hw_show_memory                                 build\kernel\libcpu\arm\common\showmem.o
rt_hw_stack_init                                  build\kernel\libcpu\arm\cortex-m3\cpuport.o
                                                  build\kernel\src\thread.o
rt_hw_systick_init                                libraries\HAL_Drivers\drv_common.o
rt_hw_us_delay                                    libraries\HAL_Drivers\drv_common.o
                                                  build\kernel\src\kservice.o
rt_hw_usart_init                                  libraries\HAL_Drivers\drv_usart.o
                                                  libraries\HAL_Drivers\drv_common.o
rt_interrupt_enter                                build\kernel\src\irq.o
                                                  libraries\HAL_Drivers\drv_common.o
                                                  libraries\HAL_Drivers\drv_usart.o
                                                  libraries\HAL_Drivers\drv_gpio.o
rt_interrupt_enter_sethook                        build\kernel\src\irq.o
rt_interrupt_from_thread                          build\kernel\libcpu\arm\cortex-m3\cpuport.o
                                                  build\kernel\libcpu\arm\cortex-m3\context_gcc.o
rt_interrupt_get_nest                             build\kernel\src\irq.o
                                                  build\kernel\components\drivers\ipc\waitqueue.o
                                                  build\kernel\components\drivers\ipc\dataqueue.o
                                                  build\kernel\components\drivers\ipc\completion.o
                                                  build\kernel\src\kservice.o
                                                  build\kernel\src\object.o
                                                  build\kernel\src\ipc.o
                                                  build\kernel\src\mempool.o
rt_interrupt_leave                                build\kernel\src\irq.o
                                                  libraries\HAL_Drivers\drv_common.o
                                                  libraries\HAL_Drivers\drv_usart.o
                                                  libraries\HAL_Drivers\drv_gpio.o
rt_interrupt_leave_sethook                        build\kernel\src\irq.o
rt_interrupt_nest                                 build\kernel\src\irq.o
                                                  build\kernel\src\scheduler.o
rt_interrupt_to_thread                            build\kernel\libcpu\arm\cortex-m3\cpuport.o
                                                  build\kernel\libcpu\arm\cortex-m3\context_gcc.o
rt_kprintf                                        build\kernel\src\kservice.o
                                                  libraries\HAL_Drivers\drv_common.o
                                                  build\kernel\components\libc\compilers\newlib\syscalls.o
                                                  build\kernel\components\libc\compilers\common\ctime.o
                                                  build\kernel\components\libc\compilers\common\cstdlib.o
                                                  build\kernel\components\finsh\msh_file.o
                                                  build\kernel\components\finsh\cmd.o
                                                  build\kernel\components\finsh\msh.o
                                                  build\kernel\components\finsh\shell.o
                                                  build\kernel\components\drivers\serial\serial.o
                                                  build\kernel\components\drivers\misc\pin.o
                                                  build\kernel\components\drivers\ipc\waitqueue.o
                                                  build\kernel\components\drivers\ipc\dataqueue.o
                                                  build\kernel\components\drivers\ipc\completion.o
                                                  build\kernel\components\dfs\src\dfs_file.o
                                                  build\kernel\components\dfs\src\dfs.o
                                                  build\kernel\components\dfs\src\dfs_fs.o
                                                  build\kernel\components\dfs\src\dfs_posix.o
                                                  build\kernel\libcpu\arm\cortex-m3\cpuport.o
                                                  build\kernel\libcpu\arm\common\showmem.o
                                                  build\kernel\libcpu\arm\common\backtrace.o
                                                  build\kernel\src\object.o
                                                  build\kernel\src\scheduler.o
                                                  build\kernel\src\device.o
                                                  build\kernel\src\ipc.o
                                                  build\kernel\src\mempool.o
                                                  build\kernel\src\mem.o
                                                  build\board\ports\user_key.o
rt_kputs                                          build\kernel\src\kservice.o
rt_malloc                                         build\kernel\src\kservice.o
                                                  build\kernel\components\libc\compilers\newlib\syscalls.o
                                                  build\kernel\components\finsh\msh_file.o
                                                  build\kernel\components\finsh\msh.o
                                                  build\kernel\components\finsh\shell.o
                                                  build\kernel\components\drivers\serial\serial.o
                                                  build\kernel\components\drivers\ipc\pipe.o
                                                  build\kernel\components\drivers\ipc\ringbuffer.o
                                                  build\kernel\components\drivers\ipc\workqueue.o
                                                  build\kernel\components\drivers\ipc\ringblk_buf.o
                                                  build\kernel\components\drivers\ipc\dataqueue.o
                                                  build\kernel\components\dfs\src\dfs_file.o
                                                  build\kernel\components\dfs\src\dfs.o
                                                  build\kernel\components\dfs\src\dfs_posix.o
                                                  build\kernel\src\object.o
                                                  build\kernel\src\device.o
                                                  build\kernel\src\ipc.o
                                                  build\kernel\src\thread.o
                                                  build\kernel\src\mempool.o
rt_malloc_align                                   build\kernel\src\kservice.o
rt_malloc_sethook                                 build\kernel\src\kservice.o
rt_mb_control                                     build\kernel\src\ipc.o
rt_mb_create                                      build\kernel\src\ipc.o
rt_mb_delete                                      build\kernel\src\ipc.o
rt_mb_detach                                      build\kernel\src\ipc.o
rt_mb_init                                        build\kernel\src\ipc.o
rt_mb_recv                                        build\kernel\src\ipc.o
rt_mb_send                                        build\kernel\src\ipc.o
rt_mb_send_wait                                   build\kernel\src\ipc.o
rt_mb_urgent                                      build\kernel\src\ipc.o
rt_memcmp                                         build\kernel\src\kservice.o
                                                  build\kernel\components\libc\compilers\common\cstring.o
rt_memcpy                                         build\kernel\src\kservice.o
                                                  build\kernel\components\libc\compilers\common\cstring.o
                                                  build\kernel\components\finsh\msh_file.o
                                                  build\kernel\components\finsh\cmd.o
                                                  build\kernel\components\finsh\msh.o
                                                  build\kernel\components\finsh\shell.o
                                                  build\kernel\components\drivers\serial\serial.o
                                                  build\kernel\components\drivers\ipc\ringbuffer.o
                                                  build\kernel\src\ipc.o
                                                  build\kernel\src\mem.o
rt_memmove                                        build\kernel\src\kservice.o
                                                  build\kernel\components\finsh\shell.o
rt_memory_info                                    build\kernel\src\kservice.o
                                                  build\kernel\components\finsh\msh.o
rt_memset                                         build\kernel\src\kservice.o
                                                  build\kernel\components\libc\compilers\common\cstring.o
                                                  build\kernel\components\libc\compilers\common\ctime.o
                                                  build\kernel\components\finsh\msh.o
                                                  build\kernel\components\finsh\shell.o
                                                  build\kernel\components\drivers\serial\serial.o
                                                  build\kernel\components\drivers\ipc\pipe.o
                                                  build\kernel\components\dfs\src\dfs_file.o
                                                  build\kernel\components\dfs\src\dfs.o
                                                  build\kernel\components\dfs\src\dfs_fs.o
                                                  build\kernel\components\dfs\src\dfs_posix.o
                                                  build\kernel\src\object.o
                                                  build\kernel\src\device.o
                                                  build\kernel\src\thread.o
                                                  build\kernel\src\mem.o
rt_mp_alloc                                       build\kernel\src\mempool.o
rt_mp_alloc_sethook                               build\kernel\src\mempool.o
rt_mp_create                                      build\kernel\src\mempool.o
rt_mp_delete                                      build\kernel\src\mempool.o
rt_mp_detach                                      build\kernel\src\mempool.o
rt_mp_free                                        build\kernel\src\mempool.o
rt_mp_free_sethook                                build\kernel\src\mempool.o
rt_mp_init                                        build\kernel\src\mempool.o
rt_mq_control                                     build\kernel\src\ipc.o
rt_mq_create                                      build\kernel\src\ipc.o
rt_mq_delete                                      build\kernel\src\ipc.o
rt_mq_detach                                      build\kernel\src\ipc.o
rt_mq_init                                        build\kernel\src\ipc.o
rt_mq_recv                                        build\kernel\src\ipc.o
rt_mq_send                                        build\kernel\src\ipc.o
rt_mq_send_wait                                   build\kernel\src\ipc.o
rt_mq_urgent                                      build\kernel\src\ipc.o
rt_mutex_control                                  build\kernel\src\ipc.o
rt_mutex_create                                   build\kernel\src\ipc.o
rt_mutex_delete                                   build\kernel\src\ipc.o
rt_mutex_detach                                   build\kernel\src\ipc.o
                                                  build\kernel\components\drivers\ipc\pipe.o
rt_mutex_init                                     build\kernel\src\ipc.o
                                                  build\kernel\components\drivers\ipc\pipe.o
                                                  build\kernel\components\dfs\src\dfs.o
                                                  build\kernel\src\kservice.o
rt_mutex_release                                  build\kernel\src\ipc.o
                                                  build\kernel\components\drivers\ipc\pipe.o
                                                  build\kernel\components\dfs\src\dfs.o
                                                  build\kernel\src\kservice.o
rt_mutex_take                                     build\kernel\src\ipc.o
                                                  build\kernel\components\drivers\ipc\pipe.o
                                                  build\kernel\components\dfs\src\dfs.o
                                                  build\kernel\src\kservice.o
rt_mutex_trytake                                  build\kernel\src\ipc.o
rt_object_allocate                                build\kernel\src\object.o
                                                  build\kernel\src\ipc.o
                                                  build\kernel\src\thread.o
                                                  build\kernel\src\mempool.o
                                                  build\kernel\src\timer.o
rt_object_attach_sethook                          build\kernel\src\object.o
rt_object_delete                                  build\kernel\src\object.o
                                                  build\kernel\src\idle.o
                                                  build\kernel\src\ipc.o
                                                  build\kernel\src\thread.o
                                                  build\kernel\src\mempool.o
                                                  build\kernel\src\timer.o
rt_object_detach                                  build\kernel\src\object.o
                                                  build\kernel\src\idle.o
                                                  build\kernel\src\device.o
                                                  build\kernel\src\ipc.o
                                                  build\kernel\src\mempool.o
                                                  build\kernel\src\timer.o
                                                  build\kernel\src\mem.o
rt_object_detach_sethook                          build\kernel\src\object.o
rt_object_find                                    build\kernel\src\object.o
                                                  build\kernel\src\device.o
                                                  build\kernel\src\thread.o
rt_object_get_information                         build\kernel\src\object.o
                                                  build\kernel\components\finsh\cmd.o
rt_object_get_length                              build\kernel\src\object.o
rt_object_get_pointers                            build\kernel\src\object.o
rt_object_get_type                                build\kernel\src\object.o
                                                  build\kernel\src\device.o
                                                  build\kernel\src\ipc.o
                                                  build\kernel\src\thread.o
                                                  build\kernel\src\mempool.o
                                                  build\kernel\src\timer.o
                                                  build\kernel\src\mem.o
rt_object_init                                    build\kernel\src\object.o
                                                  build\kernel\src\device.o
                                                  build\kernel\src\ipc.o
                                                  build\kernel\src\thread.o
                                                  build\kernel\src\mempool.o
                                                  build\kernel\src\timer.o
                                                  build\kernel\src\mem.o
rt_object_is_systemobject                         build\kernel\src\object.o
                                                  build\kernel\src\idle.o
                                                  build\kernel\src\device.o
                                                  build\kernel\src\ipc.o
                                                  build\kernel\src\thread.o
                                                  build\kernel\src\mempool.o
                                                  build\kernel\src\timer.o
                                                  build\kernel\src\mem.o
rt_object_put_hook                                build\kernel\src\object.o
                                                  build\kernel\src\ipc.o
                                                  build\kernel\src\timer.o
rt_object_put_sethook                             build\kernel\src\object.o
rt_object_take_hook                               build\kernel\src\object.o
                                                  build\kernel\src\ipc.o
                                                  build\kernel\src\timer.o
rt_object_take_sethook                            build\kernel\src\object.o
rt_object_trytake_hook                            build\kernel\src\object.o
                                                  build\kernel\src\ipc.o
rt_object_trytake_sethook                         build\kernel\src\object.o
rt_pin_attach_irq                                 build\kernel\components\drivers\misc\pin.o
                                                  build\board\ports\user_key.o
rt_pin_detach_irq                                 build\kernel\components\drivers\misc\pin.o
rt_pin_get                                        build\kernel\components\drivers\misc\pin.o
rt_pin_irq_enable                                 build\kernel\components\drivers\misc\pin.o
                                                  build\board\ports\user_key.o
rt_pin_mode                                       build\kernel\components\drivers\misc\pin.o
                                                  build\board\ports\user_key.o
                                                  build\applications\main.o
rt_pin_read                                       build\kernel\components\drivers\misc\pin.o
                                                  build\board\ports\user_key.o
rt_pin_write                                      build\kernel\components\drivers\misc\pin.o
                                                  build\applications\main.o
rt_pipe_create                                    build\kernel\components\drivers\ipc\pipe.o
rt_pipe_delete                                    build\kernel\components\drivers\ipc\pipe.o
rt_rbb_blk_alloc                                  build\kernel\components\drivers\ipc\ringblk_buf.o
rt_rbb_blk_buf                                    build\kernel\components\drivers\ipc\ringblk_buf.o
rt_rbb_blk_free                                   build\kernel\components\drivers\ipc\ringblk_buf.o
rt_rbb_blk_get                                    build\kernel\components\drivers\ipc\ringblk_buf.o
rt_rbb_blk_put                                    build\kernel\components\drivers\ipc\ringblk_buf.o
rt_rbb_blk_queue_buf                              build\kernel\components\drivers\ipc\ringblk_buf.o
rt_rbb_blk_queue_free                             build\kernel\components\drivers\ipc\ringblk_buf.o
rt_rbb_blk_queue_get                              build\kernel\components\drivers\ipc\ringblk_buf.o
rt_rbb_blk_queue_len                              build\kernel\components\drivers\ipc\ringblk_buf.o
rt_rbb_blk_size                                   build\kernel\components\drivers\ipc\ringblk_buf.o
rt_rbb_create                                     build\kernel\components\drivers\ipc\ringblk_buf.o
rt_rbb_destroy                                    build\kernel\components\drivers\ipc\ringblk_buf.o
rt_rbb_get_buf_size                               build\kernel\components\drivers\ipc\ringblk_buf.o
rt_rbb_init                                       build\kernel\components\drivers\ipc\ringblk_buf.o
rt_rbb_next_blk_queue_len                         build\kernel\components\drivers\ipc\ringblk_buf.o
rt_realloc                                        build\kernel\src\kservice.o
                                                  build\kernel\components\libc\compilers\newlib\syscalls.o
                                                  build\kernel\components\dfs\src\dfs.o
rt_ringbuffer_create                              build\kernel\components\drivers\ipc\ringbuffer.o
                                                  build\kernel\components\drivers\ipc\pipe.o
rt_ringbuffer_data_len                            build\kernel\components\drivers\ipc\ringbuffer.o
rt_ringbuffer_destroy                             build\kernel\components\drivers\ipc\ringbuffer.o
                                                  build\kernel\components\drivers\ipc\pipe.o
rt_ringbuffer_get                                 build\kernel\components\drivers\ipc\ringbuffer.o
                                                  build\kernel\components\drivers\ipc\pipe.o
rt_ringbuffer_getchar                             build\kernel\components\drivers\ipc\ringbuffer.o
rt_ringbuffer_init                                build\kernel\components\drivers\ipc\ringbuffer.o
rt_ringbuffer_peek                                build\kernel\components\drivers\ipc\ringbuffer.o
rt_ringbuffer_put                                 build\kernel\components\drivers\ipc\ringbuffer.o
                                                  build\kernel\components\drivers\ipc\pipe.o
rt_ringbuffer_put_force                           build\kernel\components\drivers\ipc\ringbuffer.o
rt_ringbuffer_putchar                             build\kernel\components\drivers\ipc\ringbuffer.o
rt_ringbuffer_putchar_force                       build\kernel\components\drivers\ipc\ringbuffer.o
rt_ringbuffer_reset                               build\kernel\components\drivers\ipc\ringbuffer.o
rt_schedule                                       build\kernel\src\scheduler.o
                                                  build\kernel\components\drivers\ipc\waitqueue.o
                                                  build\kernel\components\drivers\ipc\workqueue.o
                                                  build\kernel\components\drivers\ipc\dataqueue.o
                                                  build\kernel\components\drivers\ipc\completion.o
                                                  build\kernel\src\ipc.o
                                                  build\kernel\src\clock.o
                                                  build\kernel\src\thread.o
                                                  build\kernel\src\mempool.o
                                                  build\kernel\src\timer.o
rt_schedule_insert_thread                         build\kernel\src\scheduler.o
                                                  build\kernel\src\thread.o
rt_schedule_remove_thread                         build\kernel\src\scheduler.o
                                                  build\kernel\src\thread.o
rt_scheduler_sethook                              build\kernel\src\scheduler.o
rt_scheduler_switch_sethook                       build\kernel\src\scheduler.o
rt_sem_control                                    build\kernel\src\ipc.o
rt_sem_create                                     build\kernel\src\ipc.o
rt_sem_delete                                     build\kernel\src\ipc.o
rt_sem_detach                                     build\kernel\src\ipc.o
                                                  build\kernel\components\drivers\ipc\workqueue.o
rt_sem_init                                       build\kernel\src\ipc.o
                                                  build\kernel\components\finsh\shell.o
                                                  build\kernel\components\drivers\ipc\workqueue.o
rt_sem_release                                    build\kernel\src\ipc.o
                                                  build\kernel\components\finsh\shell.o
                                                  build\kernel\components\drivers\ipc\workqueue.o
rt_sem_take                                       build\kernel\src\ipc.o
                                                  build\kernel\components\finsh\shell.o
                                                  build\kernel\components\drivers\ipc\workqueue.o
rt_sem_trytake                                    build\kernel\src\ipc.o
                                                  build\kernel\components\drivers\ipc\workqueue.o
rt_set_errno                                      build\kernel\src\kservice.o
                                                  build\kernel\components\libc\compilers\common\ctime.o
                                                  build\kernel\components\drivers\serial\serial.o
                                                  build\kernel\components\drivers\ipc\pipe.o
                                                  build\kernel\components\dfs\src\dfs_fs.o
                                                  build\kernel\components\dfs\src\dfs_posix.o
                                                  build\kernel\src\device.o
                                                  build\kernel\src\mempool.o
rt_show_version                                   build\kernel\src\kservice.o
                                                  build\kernel\components\finsh\cmd.o
                                                  build\kernel\src\components.o
rt_smem_alloc                                     build\kernel\src\mem.o
                                                  build\kernel\src\kservice.o
rt_smem_detach                                    build\kernel\src\mem.o
rt_smem_free                                      build\kernel\src\mem.o
                                                  build\kernel\src\kservice.o
rt_smem_init                                      build\kernel\src\mem.o
                                                  build\kernel\src\kservice.o
rt_smem_realloc                                   build\kernel\src\mem.o
                                                  build\kernel\src\kservice.o
rt_snprintf                                       build\kernel\src\kservice.o
                                                  build\kernel\components\finsh\msh_file.o
                                                  build\kernel\components\dfs\src\dfs.o
rt_soft_timer_check                               build\kernel\src\timer.o
rt_sprintf                                        build\kernel\src\kservice.o
                                                  build\kernel\components\finsh\msh_file.o
                                                  build\kernel\src\idle.o
rt_strdup                                         build\kernel\src\kservice.o
                                                  build\kernel\components\dfs\src\dfs_file.o
                                                  build\kernel\components\dfs\src\dfs.o
rt_strerror                                       build\kernel\src\kservice.o
                                                  build\kernel\components\finsh\cmd.o
rt_strnlen                                        build\kernel\src\kservice.o
rt_system_heap_init                               build\kernel\src\kservice.o
                                                  libraries\HAL_Drivers\drv_common.o
rt_system_scheduler_init                          build\kernel\src\scheduler.o
                                                  build\kernel\src\components.o
rt_system_scheduler_start                         build\kernel\src\scheduler.o
                                                  build\kernel\src\components.o
rt_system_timer_init                              build\kernel\src\timer.o
                                                  build\kernel\src\components.o
rt_system_timer_thread_init                       build\kernel\src\timer.o
                                                  build\kernel\src\components.o
rt_thread_control                                 build\kernel\src\thread.o
                                                  build\kernel\components\libc\compilers\common\cstdlib.o
                                                  build\kernel\src\ipc.o
rt_thread_create                                  build\kernel\src\thread.o
                                                  build\kernel\components\finsh\shell.o
                                                  build\kernel\components\drivers\ipc\workqueue.o
                                                  build\kernel\src\components.o
rt_thread_defunct_dequeue                         build\kernel\src\idle.o
rt_thread_defunct_enqueue                         build\kernel\src\idle.o
                                                  build\kernel\src\thread.o
rt_thread_delay                                   build\kernel\src\thread.o
                                                  build\kernel\src\timer.o
rt_thread_delay_until                             build\kernel\src\thread.o
rt_thread_delete                                  build\kernel\src\thread.o
                                                  build\kernel\components\drivers\ipc\workqueue.o
rt_thread_detach                                  build\kernel\src\thread.o
rt_thread_find                                    build\kernel\src\thread.o
rt_thread_idle_delhook                            build\kernel\src\idle.o
rt_thread_idle_gethandler                         build\kernel\src\idle.o
rt_thread_idle_init                               build\kernel\src\idle.o
                                                  build\kernel\src\components.o
rt_thread_idle_sethook                            build\kernel\src\idle.o
rt_thread_init                                    build\kernel\src\thread.o
                                                  build\kernel\src\idle.o
                                                  build\kernel\src\timer.o
rt_thread_inited_sethook                          build\kernel\src\thread.o
rt_thread_mdelay                                  build\kernel\src\thread.o
                                                  libraries\HAL_Drivers\drv_common.o
                                                  build\applications\main.o
rt_thread_priority_table                          build\kernel\src\scheduler.o
rt_thread_ready_priority_group                    build\kernel\src\scheduler.o
rt_thread_resume                                  build\kernel\src\thread.o
                                                  build\kernel\components\drivers\ipc\waitqueue.o
                                                  build\kernel\components\drivers\ipc\workqueue.o
                                                  build\kernel\components\drivers\ipc\dataqueue.o
                                                  build\kernel\components\drivers\ipc\completion.o
                                                  build\kernel\src\ipc.o
                                                  build\kernel\src\mempool.o
                                                  build\kernel\src\timer.o
rt_thread_resume_sethook                          build\kernel\src\thread.o
rt_thread_self                                    build\kernel\src\thread.o
                                                  libraries\HAL_Drivers\drv_common.o
                                                  build\kernel\components\libc\compilers\common\cstdlib.o
                                                  build\kernel\components\drivers\ipc\waitqueue.o
                                                  build\kernel\components\drivers\ipc\workqueue.o
                                                  build\kernel\components\drivers\ipc\dataqueue.o
                                                  build\kernel\components\drivers\ipc\completion.o
                                                  build\kernel\libcpu\arm\cortex-m3\cpuport.o
                                                  build\kernel\src\kservice.o
                                                  build\kernel\src\ipc.o
                                                  build\kernel\src\clock.o
                                                  build\kernel\src\mempool.o
                                                  build\kernel\src\timer.o
rt_thread_sleep                                   build\kernel\src\thread.o
rt_thread_startup                                 build\kernel\src\thread.o
                                                  build\kernel\components\finsh\shell.o
                                                  build\kernel\components\drivers\ipc\workqueue.o
                                                  build\kernel\src\idle.o
                                                  build\kernel\src\components.o
                                                  build\kernel\src\timer.o
rt_thread_suspend                                 build\kernel\src\thread.o
                                                  build\kernel\components\drivers\ipc\waitqueue.o
                                                  build\kernel\components\drivers\ipc\workqueue.o
                                                  build\kernel\components\drivers\ipc\dataqueue.o
                                                  build\kernel\components\drivers\ipc\completion.o
                                                  build\kernel\src\ipc.o
                                                  build\kernel\src\mempool.o
                                                  build\kernel\src\timer.o
rt_thread_suspend_sethook                         build\kernel\src\thread.o
rt_thread_switch_interrupt_flag                   build\kernel\libcpu\arm\cortex-m3\cpuport.o
                                                  build\kernel\libcpu\arm\cortex-m3\context_gcc.o
rt_thread_yield                                   build\kernel\src\thread.o
rt_tick_from_millisecond                          build\kernel\src\clock.o
                                                  build\kernel\components\drivers\ipc\waitqueue.o
                                                  build\kernel\src\thread.o
rt_tick_get                                       build\kernel\src\clock.o
                                                  build\kernel\components\libc\compilers\common\ctime.o
                                                  build\kernel\components\finsh\cmd.o
                                                  build\kernel\src\ipc.o
                                                  build\kernel\src\thread.o
                                                  build\kernel\src\mempool.o
                                                  build\kernel\src\timer.o
rt_tick_get_millisecond                           build\kernel\src\clock.o
rt_tick_increase                                  build\kernel\src\clock.o
                                                  libraries\HAL_Drivers\drv_common.o
rt_tick_set                                       build\kernel\src\clock.o
rt_tick_sethook                                   build\kernel\src\clock.o
rt_timer_check                                    build\kernel\src\timer.o
                                                  build\kernel\src\clock.o
rt_timer_control                                  build\kernel\src\timer.o
                                                  build\kernel\components\drivers\ipc\waitqueue.o
                                                  build\kernel\components\drivers\ipc\workqueue.o
                                                  build\kernel\components\drivers\ipc\dataqueue.o
                                                  build\kernel\components\drivers\ipc\completion.o
                                                  build\kernel\src\ipc.o
                                                  build\kernel\src\thread.o
                                                  build\kernel\src\mempool.o
rt_timer_create                                   build\kernel\src\timer.o
rt_timer_delete                                   build\kernel\src\timer.o
rt_timer_detach                                   build\kernel\src\timer.o
                                                  build\kernel\components\drivers\ipc\workqueue.o
                                                  build\kernel\src\thread.o
rt_timer_enter_sethook                            build\kernel\src\timer.o
rt_timer_exit_sethook                             build\kernel\src\timer.o
rt_timer_init                                     build\kernel\src\timer.o
                                                  build\kernel\components\drivers\ipc\workqueue.o
                                                  build\kernel\src\thread.o
rt_timer_next_timeout_tick                        build\kernel\src\timer.o
rt_timer_start                                    build\kernel\src\timer.o
                                                  build\kernel\components\drivers\ipc\waitqueue.o
                                                  build\kernel\components\drivers\ipc\workqueue.o
                                                  build\kernel\components\drivers\ipc\dataqueue.o
                                                  build\kernel\components\drivers\ipc\completion.o
                                                  build\kernel\src\ipc.o
                                                  build\kernel\src\thread.o
                                                  build\kernel\src\mempool.o
rt_timer_stop                                     build\kernel\src\timer.o
                                                  build\kernel\components\drivers\ipc\workqueue.o
                                                  build\kernel\src\thread.o
rt_vsnprintf                                      build\kernel\src\kservice.o
rt_vsprintf                                       build\kernel\src\kservice.o
rt_work_init                                      build\kernel\components\drivers\ipc\workqueue.o
rt_workqueue_cancel_all_work                      build\kernel\components\drivers\ipc\workqueue.o
rt_workqueue_cancel_work                          build\kernel\components\drivers\ipc\workqueue.o
rt_workqueue_cancel_work_sync                     build\kernel\components\drivers\ipc\workqueue.o
rt_workqueue_create                               build\kernel\components\drivers\ipc\workqueue.o
rt_workqueue_destroy                              build\kernel\components\drivers\ipc\workqueue.o
rt_workqueue_dowork                               build\kernel\components\drivers\ipc\workqueue.o
rt_workqueue_submit_work                          build\kernel\components\drivers\ipc\workqueue.o
rt_workqueue_urgent_work                          build\kernel\components\drivers\ipc\workqueue.o
rt_wqueue_add                                     build\kernel\components\drivers\ipc\waitqueue.o
rt_wqueue_remove                                  build\kernel\components\drivers\ipc\waitqueue.o
rt_wqueue_wait                                    build\kernel\components\drivers\ipc\waitqueue.o
rt_wqueue_wakeup                                  build\kernel\components\drivers\ipc\waitqueue.o
rtthread_startup                                  build\kernel\src\components.o
seekdir                                           build\kernel\components\dfs\src\dfs_posix.o
settimeofday                                      build\kernel\components\libc\compilers\common\ctime.o
shell                                             build\kernel\components\finsh\shell.o
software_init_hook                                g:/rt-threadstudio/platform/env_released/env/tools/gnu_gcc/arm_gcc/mingw/bin/../lib/gcc/arm-none-eabi/10.3.1/../../../../arm-none-eabi/lib/thumb/v7-m/nofp/crt0.o
stat                                              build\kernel\components\dfs\src\dfs_posix.o
                                                  build\kernel\components\libc\compilers\newlib\syscalls.o
                                                  build\kernel\components\finsh\msh_file.o
statfs                                            build\kernel\components\dfs\src\dfs_posix.o
stime                                             build\kernel\components\libc\compilers\common\ctime.o
stm32_uart_get_mask                               libraries\HAL_Drivers\drv_usart.o
strcasecmp                                        build\kernel\components\libc\compilers\common\cstring.o
strchr                                            g:/rt-threadstudio/platform/env_released/env/tools/gnu_gcc/arm_gcc/mingw/bin/../lib/gcc/arm-none-eabi/10.3.1/../../../../arm-none-eabi/lib/thumb/v7-m/nofp\libc.a(lib_a-strchr.o)
                                                  g:/rt-threadstudio/platform/env_released/env/tools/gnu_gcc/arm_gcc/mingw/bin/../lib/gcc/arm-none-eabi/10.3.1/../../../../arm-none-eabi/lib/thumb/v7-m/nofp\libc.a(lib_a-strstr.o)
                                                  g:/rt-threadstudio/platform/env_released/env/tools/gnu_gcc/arm_gcc/mingw/bin/../lib/gcc/arm-none-eabi/10.3.1/../../../../arm-none-eabi/lib/thumb/v7-m/nofp\libc.a(lib_a-strrchr.o)
                                                  build\kernel\components\libc\compilers\common\cstring.o
strchrnul                                         build\kernel\components\libc\compilers\common\cstring.o
strcmp                                            g:/rt-threadstudio/platform/env_released/env/tools/gnu_gcc/arm_gcc/mingw/bin/../lib/gcc/arm-none-eabi/10.3.1/../../../../arm-none-eabi/lib/thumb/v7-m/nofp\libc.a(lib_a-strcmp.o)
                                                  build\kernel\components\finsh\msh_file.o
                                                  build\kernel\components\finsh\cmd.o
                                                  build\kernel\components\drivers\misc\pin.o
                                                  build\kernel\components\dfs\src\dfs.o
                                                  build\kernel\components\dfs\src\dfs_fs.o
strcpy                                            g:/rt-threadstudio/platform/env_released/env/tools/gnu_gcc/arm_gcc/mingw/bin/../lib/gcc/arm-none-eabi/10.3.1/../../../../arm-none-eabi/lib/thumb/v7-m/nofp\libc.a(lib_a-strcpy.o)
                                                  build\kernel\components\finsh\shell.o
strdup                                            build\kernel\components\libc\compilers\common\cstring.o
strlen                                            g:/rt-threadstudio/platform/env_released/env/tools/gnu_gcc/arm_gcc/mingw/bin/../lib/gcc/arm-none-eabi/10.3.1/../../../../arm-none-eabi/lib/thumb/v7-m/nofp\libc.a(lib_a-strlen-stub.o)
                                                  g:/rt-threadstudio/platform/env_released/env/tools/gnu_gcc/arm_gcc/mingw/bin/../lib/gcc/arm-none-eabi/10.3.1/../../../../arm-none-eabi/lib/thumb/v7-m/nofp\libc.a(lib_a-strstr.o)
                                                  libraries\HAL_Drivers\drv_gpio.o
                                                  build\kernel\components\libc\compilers\common\cstring.o
                                                  build\kernel\components\libc\compilers\common\cstdlib.o
                                                  build\kernel\components\finsh\msh_file.o
                                                  build\kernel\components\finsh\msh.o
                                                  build\kernel\components\finsh\shell.o
                                                  build\kernel\components\drivers\misc\pin.o
                                                  build\kernel\components\dfs\src\dfs.o
                                                  build\kernel\components\dfs\src\dfs_fs.o
                                                  build\kernel\components\dfs\src\dfs_posix.o
                                                  build\kernel\src\kservice.o
strncasecmp                                       build\kernel\components\libc\compilers\common\cstring.o
strncat                                           g:/rt-threadstudio/platform/env_released/env/tools/gnu_gcc/arm_gcc/mingw/bin/../lib/gcc/arm-none-eabi/10.3.1/../../../../arm-none-eabi/lib/thumb/v7-m/nofp\libc.a(lib_a-strncat.o)
                                                  build\kernel\components\drivers\misc\pin.o
strncmp                                           g:/rt-threadstudio/platform/env_released/env/tools/gnu_gcc/arm_gcc/mingw/bin/../lib/gcc/arm-none-eabi/10.3.1/../../../../arm-none-eabi/lib/thumb/v7-m/nofp\libc.a(lib_a-strncmp.o)
                                                  build\kernel\components\finsh\msh.o
                                                  build\kernel\components\dfs\src\dfs_fs.o
                                                  build\kernel\src\object.o
strncpy                                           g:/rt-threadstudio/platform/env_released/env/tools/gnu_gcc/arm_gcc/mingw/bin/../lib/gcc/arm-none-eabi/10.3.1/../../../../arm-none-eabi/lib/thumb/v7-m/nofp\libc.a(lib_a-strncpy.o)
                                                  build\kernel\components\finsh\msh.o
                                                  build\kernel\components\finsh\shell.o
                                                  build\kernel\components\dfs\src\dfs_posix.o
                                                  build\kernel\src\object.o
strndup                                           build\kernel\components\libc\compilers\common\cstring.o
strnlen                                           build\kernel\components\libc\compilers\common\cstring.o
                                                  g:/rt-threadstudio/platform/env_released/env/tools/gnu_gcc/arm_gcc/mingw/bin/../lib/gcc/arm-none-eabi/10.3.1/../../../../arm-none-eabi/lib/thumb/v7-m/nofp\libc.a(lib_a-strstr.o)
strrchr                                           g:/rt-threadstudio/platform/env_released/env/tools/gnu_gcc/arm_gcc/mingw/bin/../lib/gcc/arm-none-eabi/10.3.1/../../../../arm-none-eabi/lib/thumb/v7-m/nofp\libc.a(lib_a-strrchr.o)
                                                  build\kernel\components\libc\compilers\common\cstring.o
                                                  build\kernel\components\dfs\src\dfs_file.o
strstr                                            g:/rt-threadstudio/platform/env_released/env/tools/gnu_gcc/arm_gcc/mingw/bin/../lib/gcc/arm-none-eabi/10.3.1/../../../../arm-none-eabi/lib/thumb/v7-m/nofp\libc.a(lib_a-strstr.o)
                                                  build\kernel\components\finsh\msh_file.o
strtok_r                                          build\kernel\components\libc\compilers\common\cstring.o
strtol                                            g:/rt-threadstudio/platform/env_released/env/tools/gnu_gcc/arm_gcc/mingw/bin/../lib/gcc/arm-none-eabi/10.3.1/../../../../arm-none-eabi/lib/thumb/v7-m/nofp\libc.a(lib_a-strtol.o)
                                                  g:/rt-threadstudio/platform/env_released/env/tools/gnu_gcc/arm_gcc/mingw/bin/../lib/gcc/arm-none-eabi/10.3.1/../../../../arm-none-eabi/lib/thumb/v7-m/nofp\libc.a(lib_a-atoi.o)
strtol_l                                          g:/rt-threadstudio/platform/env_released/env/tools/gnu_gcc/arm_gcc/mingw/bin/../lib/gcc/arm-none-eabi/10.3.1/../../../../arm-none-eabi/lib/thumb/v7-m/nofp\libc.a(lib_a-strtol.o)
system                                            build\kernel\components\libc\compilers\common\cstdlib.o
telldir                                           build\kernel\components\dfs\src\dfs_posix.o
time                                              build\kernel\components\libc\compilers\common\ctime.o
timegm                                            build\kernel\components\libc\compilers\common\ctime.o
toascii                                           build\kernel\components\libc\compilers\common\cctype.o
tz_get                                            build\kernel\components\libc\compilers\common\ctime.o
tz_is_dst                                         build\kernel\components\libc\compilers\common\ctime.o
tz_set                                            build\kernel\components\libc\compilers\common\ctime.o
ultoa                                             build\kernel\components\libc\compilers\common\cstdlib.o
umask                                             build\kernel\components\libc\compilers\newlib\syscalls.o
unlink                                            build\kernel\components\dfs\src\dfs_posix.o
                                                  build\kernel\components\libc\compilers\newlib\syscalls.o
                                                  build\kernel\components\finsh\msh_file.o
utoa                                              build\kernel\components\libc\compilers\common\cstdlib.o
uwTick                                            libraries\STM32F1xx_HAL\STM32F1xx_HAL_Driver\Src\stm32f1xx_hal.o
                                                  libraries\HAL_Drivers\drv_common.o
uwTickFreq                                        libraries\STM32F1xx_HAL\STM32F1xx_HAL_Driver\Src\stm32f1xx_hal.o
uwTickPrio                                        libraries\STM32F1xx_HAL\STM32F1xx_HAL_Driver\Src\stm32f1xx_hal.o
                                                  libraries\STM32F1xx_HAL\STM32F1xx_HAL_Driver\Src\stm32f1xx_hal_rcc.o
version                                           build\kernel\components\finsh\cmd.o
wcswidth                                          build\kernel\components\libc\compilers\common\cwchar.o
wcwidth                                           build\kernel\components\libc\compilers\common\cwchar.o
working_directory                                 build\kernel\components\dfs\src\dfs.o
                                                  build\kernel\components\finsh\msh_file.o
                                                  build\kernel\components\dfs\src\dfs_file.o
                                                  build\kernel\components\dfs\src\dfs_posix.o
write                                             build\kernel\components\dfs\src\dfs_posix.o
                                                  build\kernel\components\libc\compilers\newlib\syscalls.o
                                                  build\kernel\components\finsh\msh_file.o
